	.cpu cortex-m4
	.eabi_attribute 20, 1
	.eabi_attribute 21, 1
	.eabi_attribute 23, 3
	.eabi_attribute 24, 1
	.eabi_attribute 25, 1
	.eabi_attribute 26, 1
	.eabi_attribute 30, 6
	.eabi_attribute 34, 1
	.eabi_attribute 18, 4
	.file	"app_timer.c"
	.text
.Ltext0:
	.section	.text.NVIC_EnableIRQ,"ax",%progbits
	.align	1
	.syntax unified
	.thumb
	.thumb_func
	.fpu softvfp
	.type	NVIC_EnableIRQ, %function
NVIC_EnableIRQ:
.LFB109:
	.file 1 "./../../../../../../../components/toolchain/cmsis/include/core_cm4.h"
	.loc 1 1627 1
	@ args = 0, pretend = 0, frame = 8
	@ frame_needed = 0, uses_anonymous_args = 0
	@ link register save eliminated.
	sub	sp, sp, #8
.LCFI0:
	mov	r3, r0
	strb	r3, [sp, #7]
	.loc 1 1628 97
	ldrb	r3, [sp, #7]	@ zero_extendqisi2
	and	r2, r3, #31
	.loc 1 1628 7
	ldr	r1, .L2
	.loc 1 1628 16
	ldrsb	r3, [sp, #7]
	.loc 1 1628 41
	lsrs	r3, r3, #5
	.loc 1 1628 67
	movs	r0, #1
	lsl	r2, r0, r2
	.loc 1 1628 50
	str	r2, [r1, r3, lsl #2]
	.loc 1 1629 1
	nop
	add	sp, sp, #8
.LCFI1:
	@ sp needed
	bx	lr
.L3:
	.align	2
.L2:
	.word	-536813312
.LFE109:
	.size	NVIC_EnableIRQ, .-NVIC_EnableIRQ
	.section	.text.NVIC_DisableIRQ,"ax",%progbits
	.align	1
	.syntax unified
	.thumb
	.thumb_func
	.fpu softvfp
	.type	NVIC_DisableIRQ, %function
NVIC_DisableIRQ:
.LFB110:
	.loc 1 1638 1
	@ args = 0, pretend = 0, frame = 8
	@ frame_needed = 0, uses_anonymous_args = 0
	@ link register save eliminated.
	sub	sp, sp, #8
.LCFI2:
	mov	r3, r0
	strb	r3, [sp, #7]
	.loc 1 1639 97
	ldrb	r3, [sp, #7]	@ zero_extendqisi2
	and	r2, r3, #31
	.loc 1 1639 7
	ldr	r1, .L5
	.loc 1 1639 16
	ldrsb	r3, [sp, #7]
	.loc 1 1639 41
	lsrs	r3, r3, #5
	.loc 1 1639 67
	movs	r0, #1
	lsl	r2, r0, r2
	.loc 1 1639 50
	adds	r3, r3, #32
	str	r2, [r1, r3, lsl #2]
	.loc 1 1640 1
	nop
	add	sp, sp, #8
.LCFI3:
	@ sp needed
	bx	lr
.L6:
	.align	2
.L5:
	.word	-536813312
.LFE110:
	.size	NVIC_DisableIRQ, .-NVIC_DisableIRQ
	.section	.text.NVIC_SetPendingIRQ,"ax",%progbits
	.align	1
	.syntax unified
	.thumb
	.thumb_func
	.fpu softvfp
	.type	NVIC_SetPendingIRQ, %function
NVIC_SetPendingIRQ:
.LFB112:
	.loc 1 1662 1
	@ args = 0, pretend = 0, frame = 8
	@ frame_needed = 0, uses_anonymous_args = 0
	@ link register save eliminated.
	sub	sp, sp, #8
.LCFI4:
	mov	r3, r0
	strb	r3, [sp, #7]
	.loc 1 1663 97
	ldrb	r3, [sp, #7]	@ zero_extendqisi2
	and	r2, r3, #31
	.loc 1 1663 7
	ldr	r1, .L8
	.loc 1 1663 16
	ldrsb	r3, [sp, #7]
	.loc 1 1663 41
	lsrs	r3, r3, #5
	.loc 1 1663 67
	movs	r0, #1
	lsl	r2, r0, r2
	.loc 1 1663 50
	adds	r3, r3, #64
	str	r2, [r1, r3, lsl #2]
	.loc 1 1664 1
	nop
	add	sp, sp, #8
.LCFI5:
	@ sp needed
	bx	lr
.L9:
	.align	2
.L8:
	.word	-536813312
.LFE112:
	.size	NVIC_SetPendingIRQ, .-NVIC_SetPendingIRQ
	.section	.text.NVIC_ClearPendingIRQ,"ax",%progbits
	.align	1
	.syntax unified
	.thumb
	.thumb_func
	.fpu softvfp
	.type	NVIC_ClearPendingIRQ, %function
NVIC_ClearPendingIRQ:
.LFB113:
	.loc 1 1673 1
	@ args = 0, pretend = 0, frame = 8
	@ frame_needed = 0, uses_anonymous_args = 0
	@ link register save eliminated.
	sub	sp, sp, #8
.LCFI6:
	mov	r3, r0
	strb	r3, [sp, #7]
	.loc 1 1674 97
	ldrb	r3, [sp, #7]	@ zero_extendqisi2
	and	r2, r3, #31
	.loc 1 1674 7
	ldr	r1, .L11
	.loc 1 1674 16
	ldrsb	r3, [sp, #7]
	.loc 1 1674 41
	lsrs	r3, r3, #5
	.loc 1 1674 67
	movs	r0, #1
	lsl	r2, r0, r2
	.loc 1 1674 50
	adds	r3, r3, #96
	str	r2, [r1, r3, lsl #2]
	.loc 1 1675 1
	nop
	add	sp, sp, #8
.LCFI7:
	@ sp needed
	bx	lr
.L12:
	.align	2
.L11:
	.word	-536813312
.LFE113:
	.size	NVIC_ClearPendingIRQ, .-NVIC_ClearPendingIRQ
	.section	.text.NVIC_SetPriority,"ax",%progbits
	.align	1
	.syntax unified
	.thumb
	.thumb_func
	.fpu softvfp
	.type	NVIC_SetPriority, %function
NVIC_SetPriority:
.LFB115:
	.loc 1 1699 1
	@ args = 0, pretend = 0, frame = 8
	@ frame_needed = 0, uses_anonymous_args = 0
	@ link register save eliminated.
	sub	sp, sp, #8
.LCFI8:
	mov	r3, r0
	str	r1, [sp]
	strb	r3, [sp, #7]
	.loc 1 1700 6
	ldrsb	r3, [sp, #7]
	cmp	r3, #0
	bge	.L14
	.loc 1 1702 57
	ldr	r3, [sp]
	uxtb	r2, r3
	.loc 1 1702 8
	ldr	r1, .L17
	.loc 1 1702 41
	ldrb	r3, [sp, #7]	@ zero_extendqisi2
	and	r3, r3, #15
	.loc 1 1702 49
	subs	r3, r3, #4
	.loc 1 1702 57
	lsls	r2, r2, #5
	uxtb	r2, r2
	.loc 1 1702 55
	add	r3, r3, r1
	strb	r2, [r3, #24]
	.loc 1 1708 1
	b	.L16
.L14:
	.loc 1 1706 57
	ldr	r3, [sp]
	uxtb	r2, r3
	.loc 1 1706 9
	ldr	r1, .L17+4
	.loc 1 1706 15
	ldrsb	r3, [sp, #7]
	.loc 1 1706 57
	lsls	r2, r2, #5
	uxtb	r2, r2
	.loc 1 1706 55
	add	r3, r3, r1
	strb	r2, [r3, #768]
.L16:
	.loc 1 1708 1
	nop
	add	sp, sp, #8
.LCFI9:
	@ sp needed
	bx	lr
.L18:
	.align	2
.L17:
	.word	-536810240
	.word	-536813312
.LFE115:
	.size	NVIC_SetPriority, .-NVIC_SetPriority
	.section	.text.sd_mbr_command,"ax",%progbits
	.align	1
	.syntax unified
	.thumb
	.thumb_func
	.fpu softvfp
	.type	sd_mbr_command, %function
sd_mbr_command:
.LFB124:
	.file 2 "./../../../../../../../components/softdevice/mbr/nrf52840/headers/nrf_mbr.h"
	.loc 2 257 1
	@ Naked Function: prologue and epilogue provided by programmer.
	@ args = 0, pretend = 0, frame = 0
	@ frame_needed = 0, uses_anonymous_args = 0
	.loc 2 257 1
	.syntax unified
@ 257 "./../../../../../../../components/softdevice/mbr/nrf52840/headers/nrf_mbr.h" 1
	svc #24
bx r14
@ 0 "" 2
	.thumb
	.syntax unified
	nop
	mov	r0, r3
.LFE124:
	.size	sd_mbr_command, .-sd_mbr_command
	.section	.text.nrfx_coredep_delay_us,"ax",%progbits
	.align	1
	.syntax unified
	.thumb
	.thumb_func
	.fpu softvfp
	.type	nrfx_coredep_delay_us, %function
nrfx_coredep_delay_us:
.LFB155:
	.file 3 "./../../../../../../../modules/nrfx/soc/nrfx_coredep.h"
	.loc 3 141 1
	@ args = 0, pretend = 0, frame = 16
	@ frame_needed = 0, uses_anonymous_args = 0
	push	{lr}
.LCFI10:
	sub	sp, sp, #20
.LCFI11:
	str	r0, [sp, #4]
	.loc 3 142 8
	ldr	r3, [sp, #4]
	cmp	r3, #0
	beq	.L23
	.loc 3 175 26
	ldr	r3, .L24
	.loc 3 175 56
	orr	r3, r3, #1
	.loc 3 173 24
	str	r3, [sp, #12]
	.loc 3 176 14
	ldr	r3, [sp, #4]
	lsls	r3, r3, #6
	str	r3, [sp, #8]
	.loc 3 177 5
	ldr	r3, [sp, #12]
	ldr	r0, [sp, #8]
	blx	r3
.LVL0:
	b	.L20
.L23:
	.loc 3 144 9
	nop
.L20:
	.loc 3 178 1
	add	sp, sp, #20
.LCFI12:
	@ sp needed
	ldr	pc, [sp], #4
.L25:
	.align	2
.L24:
	.word	delay_machine_code.6893
.LFE155:
	.size	nrfx_coredep_delay_us, .-nrfx_coredep_delay_us
	.section	.bss.m_op_queue,"aw",%nobits
	.align	2
	.type	m_op_queue, %object
	.size	m_op_queue, 268
m_op_queue:
	.space	268
	.section	.bss.mp_timer_id_head,"aw",%nobits
	.align	2
	.type	mp_timer_id_head, %object
	.size	mp_timer_id_head, 4
mp_timer_id_head:
	.space	4
	.section	.bss.m_ticks_latest,"aw",%nobits
	.align	2
	.type	m_ticks_latest, %object
	.size	m_ticks_latest, 4
m_ticks_latest:
	.space	4
	.section	.bss.m_ticks_elapsed,"aw",%nobits
	.align	2
	.type	m_ticks_elapsed, %object
	.size	m_ticks_elapsed, 8
m_ticks_elapsed:
	.space	8
	.section	.bss.m_ticks_elapsed_q_read_ind,"aw",%nobits
	.type	m_ticks_elapsed_q_read_ind, %object
	.size	m_ticks_elapsed_q_read_ind, 1
m_ticks_elapsed_q_read_ind:
	.space	1
	.section	.bss.m_ticks_elapsed_q_write_ind,"aw",%nobits
	.type	m_ticks_elapsed_q_write_ind, %object
	.size	m_ticks_elapsed_q_write_ind, 1
m_ticks_elapsed_q_write_ind:
	.space	1
	.section	.bss.m_rtc1_running,"aw",%nobits
	.type	m_rtc1_running, %object
	.size	m_rtc1_running, 1
m_rtc1_running:
	.space	1
	.section	.bss.m_rtc1_reset,"aw",%nobits
	.type	m_rtc1_reset, %object
	.size	m_rtc1_reset, 1
m_rtc1_reset:
	.space	1
	.section	.text.rtc1_init,"ax",%progbits
	.align	1
	.syntax unified
	.thumb
	.thumb_func
	.fpu softvfp
	.type	rtc1_init, %function
rtc1_init:
.LFB157:
	.file 4 "C:\\Users\\BertLenovo\\Downloads\\nRF5_2\\components\\libraries\\timer\\app_timer.c"
	.loc 4 164 1
	@ args = 0, pretend = 0, frame = 8
	@ frame_needed = 0, uses_anonymous_args = 0
	push	{lr}
.LCFI13:
	sub	sp, sp, #12
.LCFI14:
	str	r0, [sp, #4]
	.loc 4 165 13
	ldr	r2, .L27
	.loc 4 165 25
	ldr	r3, [sp, #4]
	str	r3, [r2, #1288]
	.loc 4 166 5
	movs	r1, #6
	movs	r0, #17
	bl	NVIC_SetPriority
	.loc 4 167 1
	nop
	add	sp, sp, #12
.LCFI15:
	@ sp needed
	ldr	pc, [sp], #4
.L28:
	.align	2
.L27:
	.word	1073811456
.LFE157:
	.size	rtc1_init, .-rtc1_init
	.section	.text.rtc1_start,"ax",%progbits
	.align	1
	.syntax unified
	.thumb
	.thumb_func
	.fpu softvfp
	.type	rtc1_start, %function
rtc1_start:
.LFB158:
	.loc 4 173 1
	@ args = 0, pretend = 0, frame = 0
	@ frame_needed = 0, uses_anonymous_args = 0
	push	{r3, lr}
.LCFI16:
	.loc 4 174 13
	ldr	r3, .L30
	.loc 4 174 24
	mov	r2, #65536
	str	r2, [r3, #836]
	.loc 4 175 13
	ldr	r3, .L30
	.loc 4 175 24
	mov	r2, #65536
	str	r2, [r3, #772]
	.loc 4 177 5
	movs	r0, #17
	bl	NVIC_ClearPendingIRQ
	.loc 4 178 5
	movs	r0, #17
	bl	NVIC_EnableIRQ
	.loc 4 180 13
	ldr	r3, .L30
	.loc 4 180 27
	movs	r2, #1
	str	r2, [r3]
	.loc 4 181 5
	movs	r0, #47
	bl	nrfx_coredep_delay_us
	.loc 4 183 20
	ldr	r3, .L30+4
	movs	r2, #1
	strb	r2, [r3]
	.loc 4 184 1
	nop
	pop	{r3, pc}
.L31:
	.align	2
.L30:
	.word	1073811456
	.word	m_rtc1_running
.LFE158:
	.size	rtc1_start, .-rtc1_start
	.section	.text.rtc1_stop,"ax",%progbits
	.align	1
	.syntax unified
	.thumb
	.thumb_func
	.fpu softvfp
	.type	rtc1_stop, %function
rtc1_stop:
.LFB159:
	.loc 4 190 1
	@ args = 0, pretend = 0, frame = 0
	@ frame_needed = 0, uses_anonymous_args = 0
	push	{r3, lr}
.LCFI17:
	.loc 4 191 5
	movs	r0, #17
	bl	NVIC_DisableIRQ
	.loc 4 193 13
	ldr	r3, .L33
	.loc 4 193 24
	mov	r2, #65536
	str	r2, [r3, #840]
	.loc 4 194 13
	ldr	r3, .L33
	.loc 4 194 24
	mov	r2, #65536
	str	r2, [r3, #776]
	.loc 4 196 13
	ldr	r3, .L33
	.loc 4 196 26
	movs	r2, #1
	str	r2, [r3, #4]
	.loc 4 197 5
	movs	r0, #47
	bl	nrfx_coredep_delay_us
	.loc 4 199 13
	ldr	r3, .L33
	.loc 4 199 27
	movs	r2, #1
	str	r2, [r3, #8]
	.loc 4 200 27
	ldr	r3, .L33+4
	movs	r2, #0
	str	r2, [r3]
	.loc 4 201 5
	movs	r0, #47
	bl	nrfx_coredep_delay_us
	.loc 4 203 20
	ldr	r3, .L33+8
	movs	r2, #0
	strb	r2, [r3]
	.loc 4 204 1
	nop
	pop	{r3, pc}
.L34:
	.align	2
.L33:
	.word	1073811456
	.word	m_ticks_latest
	.word	m_rtc1_running
.LFE159:
	.size	rtc1_stop, .-rtc1_stop
	.section	.text.rtc1_counter_get,"ax",%progbits
	.align	1
	.syntax unified
	.thumb
	.thumb_func
	.fpu softvfp
	.type	rtc1_counter_get, %function
rtc1_counter_get:
.LFB160:
	.loc 4 212 1
	@ args = 0, pretend = 0, frame = 0
	@ frame_needed = 0, uses_anonymous_args = 0
	@ link register save eliminated.
	.loc 4 213 20
	ldr	r3, .L37
	ldr	r3, [r3, #1284]
	.loc 4 214 1
	mov	r0, r3
	bx	lr
.L38:
	.align	2
.L37:
	.word	1073811456
.LFE160:
	.size	rtc1_counter_get, .-rtc1_counter_get
	.section	.text.ticks_diff_get,"ax",%progbits
	.align	1
	.syntax unified
	.thumb
	.thumb_func
	.fpu softvfp
	.type	ticks_diff_get, %function
ticks_diff_get:
.LFB161:
	.loc 4 222 1
	@ args = 0, pretend = 0, frame = 8
	@ frame_needed = 0, uses_anonymous_args = 0
	@ link register save eliminated.
	sub	sp, sp, #8
.LCFI18:
	str	r0, [sp, #4]
	str	r1, [sp]
	.loc 4 223 24
	ldr	r2, [sp, #4]
	ldr	r3, [sp]
	subs	r3, r2, r3
	.loc 4 223 37
	bic	r3, r3, #-16777216
	.loc 4 224 1
	mov	r0, r3
	add	sp, sp, #8
.LCFI19:
	@ sp needed
	bx	lr
.LFE161:
	.size	ticks_diff_get, .-ticks_diff_get
	.section	.text.rtc1_compare0_set,"ax",%progbits
	.align	1
	.syntax unified
	.thumb
	.thumb_func
	.fpu softvfp
	.type	rtc1_compare0_set, %function
rtc1_compare0_set:
.LFB162:
	.loc 4 233 1
	@ args = 0, pretend = 0, frame = 8
	@ frame_needed = 0, uses_anonymous_args = 0
	@ link register save eliminated.
	sub	sp, sp, #8
.LCFI20:
	str	r0, [sp, #4]
	.loc 4 234 13
	ldr	r2, .L42
	.loc 4 234 21
	ldr	r3, [sp, #4]
	str	r3, [r2, #1344]
	.loc 4 235 1
	nop
	add	sp, sp, #8
.LCFI21:
	@ sp needed
	bx	lr
.L43:
	.align	2
.L42:
	.word	1073811456
.LFE162:
	.size	rtc1_compare0_set, .-rtc1_compare0_set
	.section	.text.timer_list_insert,"ax",%progbits
	.align	1
	.syntax unified
	.thumb
	.thumb_func
	.fpu softvfp
	.type	timer_list_insert, %function
timer_list_insert:
.LFB163:
	.loc 4 243 1
	@ args = 0, pretend = 0, frame = 24
	@ frame_needed = 0, uses_anonymous_args = 0
	@ link register save eliminated.
	sub	sp, sp, #24
.LCFI22:
	str	r0, [sp, #4]
	.loc 4 244 26
	ldr	r3, .L53
	ldr	r3, [r3]
	.loc 4 244 8
	cmp	r3, #0
	bne	.L45
	.loc 4 246 26
	ldr	r2, .L53
	ldr	r3, [sp, #4]
	str	r3, [r2]
	.loc 4 284 1
	b	.L52
.L45:
	.loc 4 250 20
	ldr	r3, [sp, #4]
	ldr	r2, [r3]
	.loc 4 250 57
	ldr	r3, .L53
	ldr	r3, [r3]
	ldr	r3, [r3]
	.loc 4 250 12
	cmp	r2, r3
	bhi	.L47
	.loc 4 252 47
	ldr	r3, .L53
	ldr	r3, [r3]
	ldr	r1, [r3]
	.loc 4 252 57
	ldr	r3, [sp, #4]
	ldr	r2, [r3]
	.loc 4 252 47
	ldr	r3, .L53
	ldr	r3, [r3]
	subs	r2, r1, r2
	str	r2, [r3]
	.loc 4 254 29
	ldr	r3, .L53
	ldr	r2, [r3]
	ldr	r3, [sp, #4]
	str	r2, [r3, #28]
	.loc 4 255 30
	ldr	r2, .L53
	ldr	r3, [sp, #4]
	str	r3, [r2]
	.loc 4 284 1
	b	.L52
.L47:
.LBB2:
	.loc 4 263 31
	ldr	r3, [sp, #4]
	ldr	r3, [r3]
	str	r3, [sp, #12]
	.loc 4 264 31
	ldr	r3, .L53
	ldr	r3, [r3]
	str	r3, [sp, #20]
	.loc 4 265 31
	ldr	r3, .L53
	ldr	r3, [r3]
	str	r3, [sp, #16]
	.loc 4 267 19
	b	.L48
.L50:
	.loc 4 269 47
	ldr	r3, [sp, #16]
	ldr	r3, [r3]
	.loc 4 269 35
	ldr	r2, [sp, #12]
	subs	r3, r2, r3
	str	r3, [sp, #12]
	.loc 4 270 36
	ldr	r3, [sp, #16]
	str	r3, [sp, #20]
	.loc 4 271 36
	ldr	r3, [sp, #16]
	ldr	r3, [r3, #28]
	str	r3, [sp, #16]
.L48:
	.loc 4 267 19
	ldr	r3, [sp, #16]
	cmp	r3, #0
	beq	.L49
	.loc 4 267 71 discriminator 1
	ldr	r3, [sp, #16]
	ldr	r3, [r3]
	.loc 4 267 40 discriminator 1
	ldr	r2, [sp, #12]
	cmp	r2, r3
	bhi	.L50
.L49:
	.loc 4 274 16
	ldr	r3, [sp, #16]
	cmp	r3, #0
	beq	.L51
	.loc 4 276 44
	ldr	r3, [sp, #16]
	ldr	r2, [r3]
	ldr	r3, [sp, #12]
	subs	r2, r2, r3
	ldr	r3, [sp, #16]
	str	r2, [r3]
.L51:
	.loc 4 279 38
	ldr	r3, [sp, #4]
	ldr	r2, [sp, #12]
	str	r2, [r3]
	.loc 4 280 38
	ldr	r3, [sp, #4]
	ldr	r2, [sp, #16]
	str	r2, [r3, #28]
	.loc 4 281 38
	ldr	r3, [sp, #20]
	ldr	r2, [sp, #4]
	str	r2, [r3, #28]
.L52:
.LBE2:
	.loc 4 284 1
	nop
	add	sp, sp, #24
.LCFI23:
	@ sp needed
	bx	lr
.L54:
	.align	2
.L53:
	.word	mp_timer_id_head
.LFE163:
	.size	timer_list_insert, .-timer_list_insert
	.section	.text.timer_list_remove,"ax",%progbits
	.align	1
	.syntax unified
	.thumb
	.thumb_func
	.fpu softvfp
	.type	timer_list_remove, %function
timer_list_remove:
.LFB164:
	.loc 4 294 1
	@ args = 0, pretend = 0, frame = 24
	@ frame_needed = 0, uses_anonymous_args = 0
	push	{lr}
.LCFI24:
	sub	sp, sp, #28
.LCFI25:
	str	r0, [sp, #4]
	.loc 4 301 16
	ldr	r3, .L65
	ldr	r3, [r3]
	str	r3, [sp, #12]
	.loc 4 302 16
	ldr	r3, .L65
	ldr	r3, [r3]
	str	r3, [sp, #20]
	.loc 4 303 16
	ldr	r3, [sp, #20]
	str	r3, [sp, #16]
	.loc 4 305 11
	b	.L56
.L59:
	.loc 4 307 12
	ldr	r2, [sp, #16]
	ldr	r3, [sp, #4]
	cmp	r2, r3
	beq	.L64
	.loc 4 311 20
	ldr	r3, [sp, #16]
	str	r3, [sp, #20]
	.loc 4 312 20
	ldr	r3, [sp, #16]
	ldr	r3, [r3, #28]
	str	r3, [sp, #16]
.L56:
	.loc 4 305 11
	ldr	r3, [sp, #16]
	cmp	r3, #0
	bne	.L59
	b	.L58
.L64:
	.loc 4 309 13
	nop
.L58:
	.loc 4 316 8
	ldr	r3, [sp, #16]
	cmp	r3, #0
	bne	.L60
	.loc 4 318 16
	movs	r3, #0
	b	.L61
.L60:
	.loc 4 322 8
	ldr	r2, [sp, #20]
	ldr	r3, [sp, #16]
	cmp	r2, r3
	bne	.L62
	.loc 4 324 44
	ldr	r3, .L65
	ldr	r3, [r3]
	ldr	r3, [r3, #28]
	.loc 4 324 26
	ldr	r2, .L65
	str	r3, [r2]
	.loc 4 327 30
	ldr	r3, .L65
	ldr	r3, [r3]
	.loc 4 327 12
	cmp	r3, #0
	bne	.L62
	.loc 4 329 21
	ldr	r3, .L65+4
	.loc 4 329 35
	movs	r2, #1
	str	r2, [r3, #8]
	.loc 4 330 35
	ldr	r3, .L65+8
	movs	r2, #0
	str	r2, [r3]
	.loc 4 331 35
	ldr	r3, .L65+12
	movs	r2, #1
	strb	r2, [r3]
	.loc 4 332 13
	movs	r0, #47
	bl	nrfx_coredep_delay_us
.L62:
	.loc 4 337 13
	ldr	r3, [sp, #16]
	ldr	r3, [r3]
	str	r3, [sp, #8]
	.loc 4 340 33
	ldr	r3, [sp, #16]
	ldr	r2, [r3, #28]
	.loc 4 340 22
	ldr	r3, [sp, #20]
	str	r2, [r3, #28]
	.loc 4 343 15
	ldr	r3, [sp, #20]
	ldr	r3, [r3, #28]
	str	r3, [sp, #16]
	.loc 4 344 8
	ldr	r3, [sp, #16]
	cmp	r3, #0
	beq	.L63
	.loc 4 346 36
	ldr	r3, [sp, #16]
	ldr	r2, [r3]
	ldr	r3, [sp, #8]
	add	r2, r2, r3
	ldr	r3, [sp, #16]
	str	r2, [r3]
.L63:
	.loc 4 349 24
	ldr	r3, .L65
	ldr	r3, [r3]
	ldr	r2, [sp, #12]
	cmp	r2, r3
	ite	ne
	movne	r3, #1
	moveq	r3, #0
	uxtb	r3, r3
.L61:
	.loc 4 350 1
	mov	r0, r3
	add	sp, sp, #28
.LCFI26:
	@ sp needed
	ldr	pc, [sp], #4
.L66:
	.align	2
.L65:
	.word	mp_timer_id_head
	.word	1073811456
	.word	m_ticks_latest
	.word	m_rtc1_reset
.LFE164:
	.size	timer_list_remove, .-timer_list_remove
	.section	.text.timer_timeouts_check_sched,"ax",%progbits
	.align	1
	.syntax unified
	.thumb
	.thumb_func
	.fpu softvfp
	.type	timer_timeouts_check_sched, %function
timer_timeouts_check_sched:
.LFB165:
	.loc 4 356 1
	@ args = 0, pretend = 0, frame = 0
	@ frame_needed = 0, uses_anonymous_args = 0
	push	{r3, lr}
.LCFI27:
	.loc 4 357 5
	movs	r0, #17
	bl	NVIC_SetPendingIRQ
	.loc 4 358 1
	nop
	pop	{r3, pc}
.LFE165:
	.size	timer_timeouts_check_sched, .-timer_timeouts_check_sched
	.section	.text.timer_list_handler_sched,"ax",%progbits
	.align	1
	.syntax unified
	.thumb
	.thumb_func
	.fpu softvfp
	.type	timer_list_handler_sched, %function
timer_list_handler_sched:
.LFB166:
	.loc 4 364 1
	@ args = 0, pretend = 0, frame = 0
	@ frame_needed = 0, uses_anonymous_args = 0
	push	{r3, lr}
.LCFI28:
	.loc 4 365 5
	movs	r0, #20
	bl	NVIC_SetPendingIRQ
	.loc 4 366 1
	nop
	pop	{r3, pc}
.LFE166:
	.size	timer_list_handler_sched, .-timer_list_handler_sched
	.section	.text.timeout_handler_exec,"ax",%progbits
	.align	1
	.syntax unified
	.thumb
	.thumb_func
	.fpu softvfp
	.type	timeout_handler_exec, %function
timeout_handler_exec:
.LFB167:
	.loc 4 384 1
	@ args = 0, pretend = 0, frame = 8
	@ frame_needed = 0, uses_anonymous_args = 0
	push	{lr}
.LCFI29:
	sub	sp, sp, #12
.LCFI30:
	str	r0, [sp, #4]
	.loc 4 393 12
	ldr	r3, [sp, #4]
	ldr	r3, [r3, #20]
	.loc 4 393 5
	ldr	r2, [sp, #4]
	ldr	r2, [r2, #24]
	mov	r0, r2
	blx	r3
.LVL1:
	.loc 4 395 1
	nop
	add	sp, sp, #12
.LCFI31:
	@ sp needed
	ldr	pc, [sp], #4
.LFE167:
	.size	timeout_handler_exec, .-timeout_handler_exec
	.section	.text.timer_timeouts_check,"ax",%progbits
	.align	1
	.syntax unified
	.thumb
	.thumb_func
	.fpu softvfp
	.type	timer_timeouts_check, %function
timer_timeouts_check:
.LFB168:
	.loc 4 401 1
	@ args = 0, pretend = 0, frame = 16
	@ frame_needed = 0, uses_anonymous_args = 0
	push	{lr}
.LCFI32:
	sub	sp, sp, #20
.LCFI33:
	.loc 4 403 26
	ldr	r3, .L79
	ldr	r3, [r3]
	.loc 4 403 8
	cmp	r3, #0
	beq	.L77
.LBB3:
	.loc 4 411 23
	movs	r3, #0
	str	r3, [sp, #4]
	.loc 4 414 25
	bl	rtc1_counter_get
	mov	r2, r0
	ldr	r3, .L79+4
	ldr	r3, [r3]
	mov	r1, r3
	mov	r0, r2
	bl	ticks_diff_get
	str	r0, [sp, #8]
	.loc 4 417 17
	ldr	r3, .L79
	ldr	r3, [r3]
	str	r3, [sp, #12]
	.loc 4 420 15
	b	.L72
.L75:
	.loc 4 423 40
	ldr	r3, [sp, #12]
	ldr	r3, [r3]
	.loc 4 423 16
	ldr	r2, [sp, #8]
	cmp	r2, r3
	bcc	.L78
	.loc 4 429 37
	ldr	r3, [sp, #12]
	ldr	r3, [r3]
	.loc 4 429 27
	ldr	r2, [sp, #8]
	subs	r3, r2, r3
	str	r3, [sp, #8]
	.loc 4 430 37
	ldr	r3, [sp, #12]
	ldr	r3, [r3]
	.loc 4 430 27
	ldr	r2, [sp, #4]
	add	r3, r3, r2
	str	r3, [sp, #4]
	.loc 4 433 30
	ldr	r3, [sp, #12]
	str	r3, [sp]
	.loc 4 434 21
	ldr	r3, [sp, #12]
	ldr	r3, [r3, #28]
	str	r3, [sp, #12]
	.loc 4 437 33
	ldr	r3, [sp]
	ldrb	r3, [r3, #16]	@ zero_extendqisi2
	.loc 4 437 16
	cmp	r3, #0
	beq	.L72
	.loc 4 439 46
	ldr	r3, [sp]
	movs	r2, #0
	strb	r2, [r3, #16]
	.loc 4 440 17
	ldr	r0, [sp]
	bl	timeout_handler_exec
.L72:
	.loc 4 420 15
	ldr	r3, [sp, #12]
	cmp	r3, #0
	bne	.L75
	b	.L74
.L78:
	.loc 4 425 17
	nop
.L74:
	.loc 4 445 40
	ldr	r3, .L79+8
	ldrb	r2, [r3]	@ zero_extendqisi2
	ldr	r3, .L79+12
	ldrb	r3, [r3]	@ zero_extendqisi2
	.loc 4 445 12
	cmp	r2, r3
	bne	.L76
	.loc 4 452 17
	ldr	r3, .L79+12
	ldrb	r3, [r3]	@ zero_extendqisi2
	adds	r3, r3, #1
	uxtb	r2, r3
	.loc 4 452 16
	ldr	r3, .L79+12
	strb	r2, [r3]
	.loc 4 452 17
	ldr	r3, .L79+12
	ldrb	r3, [r3]	@ zero_extendqisi2
	.loc 4 452 16
	cmp	r3, #2
	bne	.L76
	.loc 4 456 45
	ldr	r3, .L79+12
	movs	r2, #0
	strb	r2, [r3]
.L76:
	.loc 4 461 24
	ldr	r3, .L79+12
	ldrb	r3, [r3]	@ zero_extendqisi2
	mov	r1, r3
	.loc 4 461 54
	ldr	r2, .L79+16
	ldr	r3, [sp, #4]
	str	r3, [r2, r1, lsl #2]
	.loc 4 463 9
	bl	timer_list_handler_sched
.L77:
.LBE3:
	.loc 4 465 1
	nop
	add	sp, sp, #20
.LCFI34:
	@ sp needed
	ldr	pc, [sp], #4
.L80:
	.align	2
.L79:
	.word	mp_timer_id_head
	.word	m_ticks_latest
	.word	m_ticks_elapsed_q_read_ind
	.word	m_ticks_elapsed_q_write_ind
	.word	m_ticks_elapsed
.LFE168:
	.size	timer_timeouts_check, .-timer_timeouts_check
	.section	.text.elapsed_ticks_acquire,"ax",%progbits
	.align	1
	.syntax unified
	.thumb
	.thumb_func
	.fpu softvfp
	.type	elapsed_ticks_acquire, %function
elapsed_ticks_acquire:
.LFB169:
	.loc 4 475 1
	@ args = 0, pretend = 0, frame = 8
	@ frame_needed = 0, uses_anonymous_args = 0
	@ link register save eliminated.
	sub	sp, sp, #8
.LCFI35:
	str	r0, [sp, #4]
	.loc 4 477 36
	ldr	r3, .L85
	ldrb	r2, [r3]	@ zero_extendqisi2
	ldr	r3, .L85+4
	ldrb	r3, [r3]	@ zero_extendqisi2
	.loc 4 477 8
	cmp	r2, r3
	beq	.L82
	.loc 4 480 35
	ldr	r3, .L85
	ldrb	r3, [r3]	@ zero_extendqisi2
	adds	r3, r3, #1
	uxtb	r2, r3
	ldr	r3, .L85
	strb	r2, [r3]
	.loc 4 481 40
	ldr	r3, .L85
	ldrb	r3, [r3]	@ zero_extendqisi2
	.loc 4 481 12
	cmp	r3, #2
	bne	.L83
	.loc 4 483 40
	ldr	r3, .L85
	movs	r2, #0
	strb	r2, [r3]
.L83:
	.loc 4 486 43
	ldr	r3, .L85
	ldrb	r3, [r3]	@ zero_extendqisi2
	mov	r2, r3
	ldr	r3, .L85+8
	ldr	r2, [r3, r2, lsl #2]
	.loc 4 486 26
	ldr	r3, [sp, #4]
	str	r2, [r3]
	.loc 4 488 27
	ldr	r3, [sp, #4]
	ldr	r2, [r3]
	.loc 4 488 24
	ldr	r3, .L85+12
	ldr	r3, [r3]
	add	r3, r3, r2
	ldr	r2, .L85+12
	str	r3, [r2]
	.loc 4 489 24
	ldr	r3, .L85+12
	ldr	r3, [r3]
	bic	r3, r3, #-16777216
	ldr	r2, .L85+12
	str	r3, [r2]
	.loc 4 491 16
	movs	r3, #1
	b	.L84
.L82:
	.loc 4 496 26
	ldr	r3, [sp, #4]
	movs	r2, #0
	str	r2, [r3]
	.loc 4 497 16
	movs	r3, #0
.L84:
	.loc 4 499 1
	mov	r0, r3
	add	sp, sp, #8
.LCFI36:
	@ sp needed
	bx	lr
.L86:
	.align	2
.L85:
	.word	m_ticks_elapsed_q_read_ind
	.word	m_ticks_elapsed_q_write_ind
	.word	m_ticks_elapsed
	.word	m_ticks_latest
.LFE169:
	.size	elapsed_ticks_acquire, .-elapsed_ticks_acquire
	.section	.text.expired_timers_handler,"ax",%progbits
	.align	1
	.syntax unified
	.thumb
	.thumb_func
	.fpu softvfp
	.type	expired_timers_handler, %function
expired_timers_handler:
.LFB170:
	.loc 4 511 1
	@ args = 0, pretend = 0, frame = 32
	@ frame_needed = 0, uses_anonymous_args = 0
	@ link register save eliminated.
	sub	sp, sp, #32
.LCFI37:
	str	r0, [sp, #12]
	str	r1, [sp, #8]
	str	r2, [sp, #4]
	.loc 4 512 14
	movs	r3, #0
	str	r3, [sp, #28]
	.loc 4 514 11
	b	.L88
.L91:
.LBB4:
	.loc 4 520 17
	ldr	r3, .L92
	ldr	r3, [r3]
	str	r3, [sp, #24]
	.loc 4 523 36
	ldr	r3, [sp, #24]
	ldr	r3, [r3]
	.loc 4 523 12
	ldr	r2, [sp, #12]
	cmp	r2, r3
	bcs	.L89
	.loc 4 525 38
	ldr	r3, [sp, #24]
	ldr	r2, [r3]
	ldr	r3, [sp, #12]
	subs	r2, r2, r3
	ldr	r3, [sp, #24]
	str	r2, [r3]
	.loc 4 526 13
	b	.L90
.L89:
	.loc 4 530 33
	ldr	r3, [sp, #24]
	ldr	r3, [r3]
	.loc 4 530 23
	ldr	r2, [sp, #12]
	subs	r3, r2, r3
	str	r3, [sp, #12]
	.loc 4 531 33
	ldr	r3, [sp, #24]
	ldr	r3, [r3]
	.loc 4 531 23
	ldr	r2, [sp, #28]
	add	r3, r3, r2
	str	r3, [sp, #28]
	.loc 4 534 34
	ldr	r3, [sp, #24]
	movs	r2, #0
	str	r2, [r3]
	.loc 4 537 26
	ldr	r3, .L92
	ldr	r3, [r3]
	str	r3, [sp, #20]
	.loc 4 538 35
	ldr	r3, [sp, #24]
	ldr	r3, [r3, #28]
	.loc 4 538 26
	ldr	r2, .L92
	str	r3, [r2]
	.loc 4 541 20
	ldr	r3, [sp, #24]
	ldr	r3, [r3, #12]
	.loc 4 541 12
	cmp	r3, #0
	beq	.L88
	.loc 4 543 61
	ldr	r2, [sp, #8]
	ldr	r3, [sp, #28]
	add	r3, r3, r2
	.loc 4 543 78
	bic	r2, r3, #-16777216
	.loc 4 543 43
	ldr	r3, [sp, #24]
	str	r2, [r3, #4]
	.loc 4 544 52
	ldr	r3, [sp, #24]
	ldr	r2, [r3, #12]
	.loc 4 544 43
	ldr	r3, [sp, #24]
	str	r2, [r3, #8]
	.loc 4 545 45
	ldr	r3, [sp, #4]
	ldr	r2, [r3]
	.loc 4 545 43
	ldr	r3, [sp, #24]
	str	r2, [r3, #28]
	.loc 4 546 43
	ldr	r3, [sp, #4]
	ldr	r2, [sp, #20]
	str	r2, [r3]
.L88:
.LBE4:
	.loc 4 514 29
	ldr	r3, .L92
	ldr	r3, [r3]
	.loc 4 514 11
	cmp	r3, #0
	bne	.L91
.L90:
	.loc 4 549 1
	nop
	add	sp, sp, #32
.LCFI38:
	@ sp needed
	bx	lr
.L93:
	.align	2
.L92:
	.word	mp_timer_id_head
.LFE170:
	.size	expired_timers_handler, .-expired_timers_handler
	.section	.text.list_insertions_handler,"ax",%progbits
	.align	1
	.syntax unified
	.thumb
	.thumb_func
	.fpu softvfp
	.type	list_insertions_handler, %function
list_insertions_handler:
.LFB171:
	.loc 4 559 1
	@ args = 0, pretend = 0, frame = 32
	@ frame_needed = 0, uses_anonymous_args = 0
	push	{lr}
.LCFI39:
	sub	sp, sp, #36
.LCFI40:
	str	r0, [sp, #4]
	.loc 4 560 10
	movs	r3, #0
	strb	r3, [sp, #31]
	.loc 4 565 25
	ldr	r3, .L118
	ldr	r3, [r3]
	str	r3, [sp, #20]
	.loc 4 568 11
	b	.L95
.L111:
.LBB5:
	.loc 4 572 12
	ldr	r3, [sp, #4]
	cmp	r3, #0
	beq	.L96
	.loc 4 574 31
	ldr	r3, [sp, #4]
	str	r3, [sp, #24]
	.loc 4 575 33
	ldr	r3, [sp, #24]
	ldr	r3, [r3, #28]
	str	r3, [sp, #4]
	b	.L97
.L96:
.LBB6:
	.loc 4 579 79
	ldr	r3, .L118+4
	ldrb	r3, [r3]	@ zero_extendqisi2
	mov	r2, r3
	.loc 4 579 31
	mov	r3, r2
	lsls	r3, r3, #1
	add	r3, r3, r2
	lsls	r3, r3, #3
	ldr	r2, .L118+4
	add	r3, r3, r2
	adds	r3, r3, #4
	str	r3, [sp, #16]
	.loc 4 581 23
	ldr	r3, .L118+4
	ldrb	r3, [r3]	@ zero_extendqisi2
	.loc 4 581 29
	adds	r3, r3, #1
	uxtb	r2, r3
	ldr	r3, .L118+4
	strb	r2, [r3]
	.loc 4 582 27
	ldr	r3, .L118+4
	ldrb	r2, [r3]	@ zero_extendqisi2
	.loc 4 582 47
	ldr	r3, .L118+4
	ldrb	r3, [r3, #2]	@ zero_extendqisi2
	.loc 4 582 16
	cmp	r2, r3
	bne	.L98
	.loc 4 584 34
	ldr	r3, .L118+4
	movs	r2, #0
	strb	r2, [r3]
.L98:
	.loc 4 587 21
	ldr	r3, [sp, #16]
	ldr	r3, [r3, #4]
	str	r3, [sp, #24]
	.loc 4 589 30
	ldr	r3, [sp, #16]
	ldrb	r3, [r3]	@ zero_extendqisi2
	.loc 4 589 13
	cmp	r3, #2
	beq	.L99
	cmp	r3, #3
	beq	.L104
	cmp	r3, #1
	beq	.L117
	b	.L116
.L99:
	.loc 4 593 25
	ldr	r3, [sp, #16]
	ldr	r3, [r3, #4]
	mov	r0, r3
	bl	timer_list_remove
	mov	r3, r0
	.loc 4 593 24
	cmp	r3, #0
	beq	.L103
	.loc 4 595 40
	movs	r3, #1
	strb	r3, [sp, #31]
.L103:
	.loc 4 598 41
	ldr	r3, [sp, #24]
	movs	r2, #0
	strb	r2, [r3, #16]
	.loc 4 599 21
	b	.L95
.L105:
.LBB7:
	.loc 4 605 40
	ldr	r3, .L118
	ldr	r3, [r3]
	str	r3, [sp, #12]
	.loc 4 607 44
	ldr	r3, [sp, #12]
	movs	r2, #0
	strb	r2, [r3, #16]
	.loc 4 608 53
	ldr	r3, [sp, #12]
	ldr	r3, [r3, #28]
	.loc 4 608 45
	ldr	r2, .L118
	str	r3, [r2]
.L104:
.LBE7:
	.loc 4 603 45
	ldr	r3, .L118
	ldr	r3, [r3]
	.loc 4 603 27
	cmp	r3, #0
	bne	.L105
	.loc 4 610 21
	b	.L95
.L116:
	.loc 4 615 21
	b	.L95
.L117:
	.loc 4 612 21
	nop
	.loc 4 618 24
	ldr	r3, [sp, #24]
	ldrb	r3, [r3, #16]	@ zero_extendqisi2
	.loc 4 618 16
	cmp	r3, #0
	beq	.L107
	.loc 4 620 17
	b	.L95
.L107:
	.loc 4 623 71
	ldr	r3, [sp, #16]
	ldr	r2, [r3, #8]
	.loc 4 623 46
	ldr	r3, [sp, #24]
	str	r2, [r3, #4]
	.loc 4 624 71
	ldr	r3, [sp, #16]
	ldr	r2, [r3, #12]
	.loc 4 624 46
	ldr	r3, [sp, #24]
	str	r2, [r3, #8]
	.loc 4 625 71
	ldr	r3, [sp, #16]
	ldr	r2, [r3, #16]
	.loc 4 625 46
	ldr	r3, [sp, #24]
	str	r2, [r3, #12]
	.loc 4 626 71
	ldr	r3, [sp, #16]
	ldr	r2, [r3, #20]
	.loc 4 626 46
	ldr	r3, [sp, #24]
	str	r2, [r3, #24]
	.loc 4 628 17
	ldr	r3, .L118+8
	ldrb	r3, [r3]	@ zero_extendqisi2
	.loc 4 628 16
	cmp	r3, #0
	beq	.L97
	.loc 4 630 41
	ldr	r3, [sp, #24]
	movs	r2, #0
	str	r2, [r3, #4]
.L97:
.LBE6:
	.loc 4 636 23
	ldr	r3, [sp, #24]
	ldr	r2, [r3, #4]
	.loc 4 636 40
	ldr	r3, .L118+12
	ldr	r3, [r3]
	subs	r3, r2, r3
	.loc 4 636 58
	bic	r3, r3, #-16777216
	.loc 4 635 12
	ldr	r2, .L118+16
	cmp	r3, r2
	bhi	.L108
	.loc 4 641 40
	ldr	r3, [sp, #24]
	ldr	r2, [r3, #4]
	ldr	r3, .L118+12
	ldr	r3, [r3]
	mov	r1, r3
	mov	r0, r2
	bl	ticks_diff_get
	mov	r2, r0
	.loc 4 642 47
	ldr	r3, [sp, #24]
	ldr	r3, [r3, #8]
	.loc 4 641 96
	add	r2, r2, r3
	.loc 4 641 38
	ldr	r3, [sp, #24]
	str	r2, [r3]
	b	.L109
.L108:
.LBB8:
	.loc 4 648 35
	ldr	r3, .L118+12
	ldr	r2, [r3]
	ldr	r3, [sp, #24]
	ldr	r3, [r3, #4]
	mov	r1, r3
	mov	r0, r2
	bl	ticks_diff_get
	str	r0, [sp, #8]
	.loc 4 649 24
	ldr	r3, [sp, #24]
	ldr	r3, [r3, #8]
	.loc 4 649 16
	ldr	r2, [sp, #8]
	cmp	r2, r3
	bcs	.L110
	.loc 4 651 51
	ldr	r3, [sp, #24]
	ldr	r2, [r3, #8]
	.loc 4 651 74
	ldr	r3, [sp, #8]
	subs	r2, r2, r3
	.loc 4 651 42
	ldr	r3, [sp, #24]
	str	r2, [r3]
	b	.L109
.L110:
	.loc 4 655 42
	ldr	r3, [sp, #24]
	movs	r2, #0
	str	r2, [r3]
.L109:
.LBE8:
	.loc 4 659 39
	ldr	r3, [sp, #24]
	movs	r2, #0
	str	r2, [r3, #4]
	.loc 4 660 39
	ldr	r3, [sp, #24]
	movs	r2, #0
	str	r2, [r3, #8]
	.loc 4 661 39
	ldr	r3, [sp, #24]
	movs	r2, #1
	strb	r2, [r3, #16]
	.loc 4 662 39
	ldr	r3, [sp, #24]
	movs	r2, #0
	str	r2, [r3, #28]
	.loc 4 665 9
	ldr	r0, [sp, #24]
	bl	timer_list_insert
.L95:
.LBE5:
	.loc 4 568 11
	ldr	r3, [sp, #4]
	cmp	r3, #0
	bne	.L111
	.loc 4 568 56 discriminator 1
	ldr	r3, .L118+4
	ldrb	r2, [r3]	@ zero_extendqisi2
	.loc 4 568 76 discriminator 1
	ldr	r3, .L118+4
	ldrb	r3, [r3, #1]	@ zero_extendqisi2
	.loc 4 568 42 discriminator 1
	cmp	r2, r3
	bne	.L111
	.loc 4 668 28
	ldrb	r3, [sp, #31]	@ zero_extendqisi2
	cmp	r3, #0
	bne	.L112
	.loc 4 668 49 discriminator 2
	ldr	r3, .L118
	ldr	r3, [r3]
	.loc 4 668 28 discriminator 2
	ldr	r2, [sp, #20]
	cmp	r2, r3
	beq	.L113
.L112:
	.loc 4 668 28 is_stmt 0 discriminator 3
	movs	r3, #1
	b	.L114
.L113:
	.loc 4 668 28 discriminator 4
	movs	r3, #0
.L114:
	.loc 4 668 28 discriminator 6
	and	r3, r3, #1
	uxtb	r3, r3
	.loc 4 669 1 is_stmt 1 discriminator 6
	mov	r0, r3
	add	sp, sp, #36
.LCFI41:
	@ sp needed
	ldr	pc, [sp], #4
.L119:
	.align	2
.L118:
	.word	mp_timer_id_head
	.word	m_op_queue
	.word	m_rtc1_reset
	.word	m_ticks_latest
	.word	8388606
.LFE171:
	.size	list_insertions_handler, .-list_insertions_handler
	.section	.text.compare_reg_update,"ax",%progbits
	.align	1
	.syntax unified
	.thumb
	.thumb_func
	.fpu softvfp
	.type	compare_reg_update, %function
compare_reg_update:
.LFB172:
	.loc 4 675 1
	@ args = 0, pretend = 0, frame = 32
	@ frame_needed = 0, uses_anonymous_args = 0
	push	{r4, lr}
.LCFI42:
	sub	sp, sp, #32
.LCFI43:
	str	r0, [sp, #4]
	.loc 4 677 26
	ldr	r3, .L126
	ldr	r3, [r3]
	.loc 4 677 8
	cmp	r3, #0
	beq	.L121
.LBB9:
	.loc 4 679 52
	ldr	r3, .L126
	ldr	r3, [r3]
	.loc 4 679 18
	ldr	r3, [r3]
	str	r3, [sp, #28]
	.loc 4 680 36
	bl	rtc1_counter_get
	str	r0, [sp, #24]
	.loc 4 681 18
	ldr	r3, .L126+4
	ldr	r3, [r3]
	str	r3, [sp, #20]
	.loc 4 682 36
	ldr	r1, [sp, #20]
	ldr	r0, [sp, #24]
	bl	ticks_diff_get
	mov	r3, r0
	.loc 4 682 18
	adds	r3, r3, #3
	str	r3, [sp, #16]
	.loc 4 684 13
	ldr	r3, .L126+8
	ldrb	r3, [r3]	@ zero_extendqisi2
	eor	r3, r3, #1
	uxtb	r3, r3
	.loc 4 684 12
	cmp	r3, #0
	beq	.L122
	.loc 4 687 13
	bl	rtc1_start
.L122:
	.loc 4 690 67
	ldr	r2, [sp, #16]
	ldr	r3, [sp, #28]
	cmp	r3, r2
	it	cc
	movcc	r3, r2
	.loc 4 690 12
	ldr	r2, [sp, #20]
	add	r3, r3, r2
	str	r3, [sp, #20]
	.loc 4 691 12
	ldr	r3, [sp, #20]
	bic	r3, r3, #-16777216
	str	r3, [sp, #20]
	.loc 4 693 9
	ldr	r0, [sp, #20]
	bl	rtc1_compare0_set
	.loc 4 695 37
	bl	rtc1_counter_get
	str	r0, [sp, #12]
	.loc 4 698 14
	ldr	r1, [sp, #24]
	ldr	r0, [sp, #12]
	bl	ticks_diff_get
	mov	r3, r0
	.loc 4 698 64
	adds	r4, r3, #3
	.loc 4 700 13
	ldr	r1, [sp, #24]
	ldr	r0, [sp, #20]
	bl	ticks_diff_get
	mov	r3, r0
	.loc 4 697 12
	cmp	r4, r3
	bls	.L125
	.loc 4 708 13
	bl	rtc1_counter_get
	mov	r3, r0
	mov	r0, r3
	bl	rtc1_compare0_set
	.loc 4 709 13
	movs	r0, #47
	bl	nrfx_coredep_delay_us
	.loc 4 710 13
	bl	timer_timeouts_check_sched
.LBE9:
	.loc 4 720 1
	b	.L125
.L121:
	.loc 4 717 9
	bl	rtc1_stop
.L125:
	.loc 4 720 1
	nop
	add	sp, sp, #32
.LCFI44:
	@ sp needed
	pop	{r4, pc}
.L127:
	.align	2
.L126:
	.word	mp_timer_id_head
	.word	m_ticks_latest
	.word	m_rtc1_running
.LFE172:
	.size	compare_reg_update, .-compare_reg_update
	.section	.text.timer_list_handler,"ax",%progbits
	.align	1
	.syntax unified
	.thumb
	.thumb_func
	.fpu softvfp
	.type	timer_list_handler, %function
timer_list_handler:
.LFB173:
	.loc 4 726 1
	@ args = 0, pretend = 0, frame = 24
	@ frame_needed = 0, uses_anonymous_args = 0
	push	{lr}
.LCFI45:
	sub	sp, sp, #28
.LCFI46:
	.loc 4 727 20
	movs	r3, #0
	str	r3, [sp, #4]
	.loc 4 732 20
	movs	r3, #0
	strb	r3, [sp, #23]
	.loc 4 750 23
	ldr	r3, .L132
	ldr	r3, [r3]
	str	r3, [sp, #16]
	.loc 4 751 25
	ldr	r3, .L132+4
	ldr	r3, [r3]
	str	r3, [sp, #12]
	.loc 4 754 26
	mov	r3, sp
	mov	r0, r3
	bl	elapsed_ticks_acquire
	mov	r3, r0
	strb	r3, [sp, #11]
	.loc 4 757 8
	ldrb	r3, [sp, #11]	@ zero_extendqisi2
	cmp	r3, #0
	beq	.L129
	.loc 4 759 9
	ldr	r3, [sp]
	add	r2, sp, #4
	ldr	r1, [sp, #16]
	mov	r0, r3
	bl	expired_timers_handler
	.loc 4 760 24
	movs	r3, #1
	strb	r3, [sp, #23]
.L129:
	.loc 4 765 9
	ldr	r3, [sp, #4]
	mov	r0, r3
	bl	list_insertions_handler
	mov	r3, r0
	.loc 4 765 8
	cmp	r3, #0
	beq	.L130
	.loc 4 767 24
	movs	r3, #1
	strb	r3, [sp, #23]
.L130:
	.loc 4 771 8
	ldrb	r3, [sp, #23]	@ zero_extendqisi2
	cmp	r3, #0
	beq	.L131
	.loc 4 773 9
	ldr	r0, [sp, #12]
	bl	compare_reg_update
.L131:
	.loc 4 775 18
	ldr	r3, .L132+8
	movs	r2, #0
	strb	r2, [r3]
	.loc 4 776 1
	nop
	add	sp, sp, #28
.LCFI47:
	@ sp needed
	ldr	pc, [sp], #4
.L133:
	.align	2
.L132:
	.word	m_ticks_latest
	.word	mp_timer_id_head
	.word	m_rtc1_reset
.LFE173:
	.size	timer_list_handler, .-timer_list_handler
	.section	.text.user_op_enque,"ax",%progbits
	.align	1
	.syntax unified
	.thumb
	.thumb_func
	.fpu softvfp
	.type	user_op_enque, %function
user_op_enque:
.LFB174:
	.loc 4 784 1
	@ args = 0, pretend = 0, frame = 8
	@ frame_needed = 0, uses_anonymous_args = 0
	@ link register save eliminated.
	sub	sp, sp, #8
.LCFI48:
	mov	r3, r0
	strb	r3, [sp, #7]
	.loc 4 785 21
	ldr	r2, .L135
	ldrb	r3, [sp, #7]
	strb	r3, [r2, #1]
	.loc 4 786 1
	nop
	add	sp, sp, #8
.LCFI49:
	@ sp needed
	bx	lr
.L136:
	.align	2
.L135:
	.word	m_op_queue
.LFE174:
	.size	user_op_enque, .-user_op_enque
	.section	.text.user_op_alloc,"ax",%progbits
	.align	1
	.syntax unified
	.thumb
	.thumb_func
	.fpu softvfp
	.type	user_op_alloc, %function
user_op_alloc:
.LFB175:
	.loc 4 796 1
	@ args = 0, pretend = 0, frame = 16
	@ frame_needed = 0, uses_anonymous_args = 0
	@ link register save eliminated.
	sub	sp, sp, #16
.LCFI50:
	str	r0, [sp, #4]
	.loc 4 800 22
	ldr	r3, .L141
	ldrb	r3, [r3, #1]	@ zero_extendqisi2
	.loc 4 800 10
	adds	r3, r3, #1
	strb	r3, [sp, #15]
	.loc 4 801 27
	ldr	r3, .L141
	ldrb	r3, [r3, #2]	@ zero_extendqisi2
	.loc 4 801 8
	ldrb	r2, [sp, #15]	@ zero_extendqisi2
	cmp	r2, r3
	bne	.L138
	.loc 4 804 14
	movs	r3, #0
	strb	r3, [sp, #15]
.L138:
	.loc 4 806 27
	ldr	r3, .L141
	ldrb	r3, [r3]	@ zero_extendqisi2
	.loc 4 806 8
	ldrb	r2, [sp, #15]	@ zero_extendqisi2
	cmp	r2, r3
	bne	.L139
	.loc 4 809 16
	movs	r3, #0
	b	.L140
.L139:
	.loc 4 812 19
	ldr	r3, [sp, #4]
	ldrb	r2, [sp, #15]
	strb	r2, [r3]
	.loc 4 813 57
	ldr	r3, .L141
	ldrb	r3, [r3, #1]	@ zero_extendqisi2
	mov	r2, r3
	.loc 4 813 19
	mov	r3, r2
	lsls	r3, r3, #1
	add	r3, r3, r2
	lsls	r3, r3, #3
	ldr	r2, .L141
	add	r3, r3, r2
	adds	r3, r3, #4
	str	r3, [sp, #8]
	.loc 4 815 12
	ldr	r3, [sp, #8]
.L140:
	.loc 4 816 1
	mov	r0, r3
	add	sp, sp, #16
.LCFI51:
	@ sp needed
	bx	lr
.L142:
	.align	2
.L141:
	.word	m_op_queue
.LFE175:
	.size	user_op_alloc, .-user_op_alloc
	.section	.text.timer_start_op_schedule,"ax",%progbits
	.align	1
	.syntax unified
	.thumb
	.thumb_func
	.fpu softvfp
	.type	timer_start_op_schedule, %function
timer_start_op_schedule:
.LFB176:
	.loc 4 833 1
	@ args = 0, pretend = 0, frame = 32
	@ frame_needed = 0, uses_anonymous_args = 0
	push	{lr}
.LCFI52:
	sub	sp, sp, #36
.LCFI53:
	str	r0, [sp, #12]
	str	r1, [sp, #8]
	str	r2, [sp, #4]
	str	r3, [sp]
	.loc 4 835 14
	movs	r3, #0
	str	r3, [sp, #28]
	.loc 4 837 5
	movs	r0, #0
	bl	app_util_critical_region_enter
	.loc 4 838 35
	add	r3, sp, #23
	mov	r0, r3
	bl	user_op_alloc
	str	r0, [sp, #24]
	.loc 4 839 8
	ldr	r3, [sp, #24]
	cmp	r3, #0
	bne	.L144
	.loc 4 841 18
	movs	r3, #4
	str	r3, [sp, #28]
	b	.L145
.L144:
	.loc 4 845 57
	ldr	r3, [sp, #24]
	movs	r2, #1
	strb	r2, [r3]
	.loc 4 846 57
	ldr	r3, [sp, #24]
	ldr	r2, [sp, #12]
	str	r2, [r3, #4]
	.loc 4 847 59
	bl	rtc1_counter_get
	mov	r2, r0
	.loc 4 847 57
	ldr	r3, [sp, #24]
	str	r2, [r3, #8]
	.loc 4 848 57
	ldr	r3, [sp, #24]
	ldr	r2, [sp, #8]
	str	r2, [r3, #12]
	.loc 4 849 57
	ldr	r3, [sp, #24]
	ldr	r2, [sp, #4]
	str	r2, [r3, #16]
	.loc 4 850 57
	ldr	r3, [sp, #24]
	ldr	r2, [sp]
	str	r2, [r3, #20]
	.loc 4 852 9
	ldrb	r3, [sp, #23]	@ zero_extendqisi2
	mov	r0, r3
	bl	user_op_enque
.L145:
	.loc 4 854 5
	movs	r0, #0
	bl	app_util_critical_region_exit
	.loc 4 856 8
	ldr	r3, [sp, #28]
	cmp	r3, #0
	bne	.L146
	.loc 4 858 9
	bl	timer_list_handler_sched
.L146:
	.loc 4 861 12
	ldr	r3, [sp, #28]
	.loc 4 862 1
	mov	r0, r3
	add	sp, sp, #36
.LCFI54:
	@ sp needed
	ldr	pc, [sp], #4
.LFE176:
	.size	timer_start_op_schedule, .-timer_start_op_schedule
	.section	.text.timer_stop_op_schedule,"ax",%progbits
	.align	1
	.syntax unified
	.thumb
	.thumb_func
	.fpu softvfp
	.type	timer_stop_op_schedule, %function
timer_stop_op_schedule:
.LFB177:
	.loc 4 875 1
	@ args = 0, pretend = 0, frame = 24
	@ frame_needed = 0, uses_anonymous_args = 0
	push	{lr}
.LCFI55:
	sub	sp, sp, #28
.LCFI56:
	str	r0, [sp, #4]
	mov	r3, r1
	strb	r3, [sp, #3]
	.loc 4 877 14
	movs	r3, #0
	str	r3, [sp, #20]
	.loc 4 879 5
	movs	r0, #0
	bl	app_util_critical_region_enter
	.loc 4 880 35
	add	r3, sp, #15
	mov	r0, r3
	bl	user_op_alloc
	str	r0, [sp, #16]
	.loc 4 881 8
	ldr	r3, [sp, #16]
	cmp	r3, #0
	bne	.L149
	.loc 4 883 18
	movs	r3, #4
	str	r3, [sp, #20]
	b	.L150
.L149:
	.loc 4 887 29
	ldr	r3, [sp, #16]
	ldrb	r2, [sp, #3]
	strb	r2, [r3]
	.loc 4 888 27
	ldr	r3, [sp, #16]
	ldr	r2, [sp, #4]
	str	r2, [r3, #4]
	.loc 4 890 9
	ldrb	r3, [sp, #15]	@ zero_extendqisi2
	mov	r0, r3
	bl	user_op_enque
.L150:
	.loc 4 892 5
	movs	r0, #0
	bl	app_util_critical_region_exit
	.loc 4 894 8
	ldr	r3, [sp, #20]
	cmp	r3, #0
	bne	.L151
	.loc 4 896 9
	bl	timer_list_handler_sched
.L151:
	.loc 4 899 12
	ldr	r3, [sp, #20]
	.loc 4 900 1
	mov	r0, r3
	add	sp, sp, #28
.LCFI57:
	@ sp needed
	ldr	pc, [sp], #4
.LFE177:
	.size	timer_stop_op_schedule, .-timer_stop_op_schedule
	.section	.text.RTC1_IRQHandler,"ax",%progbits
	.align	1
	.global	RTC1_IRQHandler
	.syntax unified
	.thumb
	.thumb_func
	.fpu softvfp
	.type	RTC1_IRQHandler, %function
RTC1_IRQHandler:
.LFB178:
	.loc 4 907 1
	@ args = 0, pretend = 0, frame = 0
	@ frame_needed = 0, uses_anonymous_args = 0
	push	{r3, lr}
.LCFI58:
	.loc 4 909 13
	ldr	r3, .L154
	.loc 4 909 33
	movs	r2, #0
	str	r2, [r3, #320]
	.loc 4 910 13
	ldr	r3, .L154
	.loc 4 910 33
	movs	r2, #0
	str	r2, [r3, #324]
	.loc 4 911 13
	ldr	r3, .L154
	.loc 4 911 33
	movs	r2, #0
	str	r2, [r3, #328]
	.loc 4 912 13
	ldr	r3, .L154
	.loc 4 912 33
	movs	r2, #0
	str	r2, [r3, #332]
	.loc 4 913 13
	ldr	r3, .L154
	.loc 4 913 33
	movs	r2, #0
	str	r2, [r3, #256]
	.loc 4 914 13
	ldr	r3, .L154
	.loc 4 914 33
	movs	r2, #0
	str	r2, [r3, #260]
	.loc 4 917 5
	bl	timer_timeouts_check
	.loc 4 918 1
	nop
	pop	{r3, pc}
.L155:
	.align	2
.L154:
	.word	1073811456
.LFE178:
	.size	RTC1_IRQHandler, .-RTC1_IRQHandler
	.section	.text.SWI0_EGU0_IRQHandler,"ax",%progbits
	.align	1
	.global	SWI0_EGU0_IRQHandler
	.syntax unified
	.thumb
	.thumb_func
	.fpu softvfp
	.type	SWI0_EGU0_IRQHandler, %function
SWI0_EGU0_IRQHandler:
.LFB179:
	.loc 4 926 1
	@ args = 0, pretend = 0, frame = 0
	@ frame_needed = 0, uses_anonymous_args = 0
	push	{r3, lr}
.LCFI59:
	.loc 4 927 5
	bl	timer_list_handler
	.loc 4 928 1
	nop
	pop	{r3, pc}
.LFE179:
	.size	SWI0_EGU0_IRQHandler, .-SWI0_EGU0_IRQHandler
	.section	.text.app_timer_init,"ax",%progbits
	.align	1
	.global	app_timer_init
	.syntax unified
	.thumb
	.thumb_func
	.fpu softvfp
	.type	app_timer_init, %function
app_timer_init:
.LFB180:
	.loc 4 932 1
	@ args = 0, pretend = 0, frame = 0
	@ frame_needed = 0, uses_anonymous_args = 0
	push	{r3, lr}
.LCFI60:
	.loc 4 934 5
	bl	rtc1_stop
	.loc 4 937 32
	ldr	r3, .L159
	movs	r2, #0
	strb	r2, [r3]
	.loc 4 938 32
	ldr	r3, .L159
	movs	r2, #0
	strb	r2, [r3, #1]
	.loc 4 939 32
	ldr	r3, .L159
	movs	r2, #11
	strb	r2, [r3, #2]
	.loc 4 941 33
	ldr	r3, .L159+4
	movs	r2, #0
	str	r2, [r3]
	.loc 4 942 33
	ldr	r3, .L159+8
	movs	r2, #0
	strb	r2, [r3]
	.loc 4 943 33
	ldr	r3, .L159+12
	movs	r2, #0
	strb	r2, [r3]
	.loc 4 949 5
	movs	r0, #20
	bl	NVIC_ClearPendingIRQ
	.loc 4 950 5
	movs	r1, #6
	movs	r0, #20
	bl	NVIC_SetPriority
	.loc 4 951 5
	movs	r0, #20
	bl	NVIC_EnableIRQ
	.loc 4 953 5
	movs	r0, #0
	bl	rtc1_init
	.loc 4 955 22
	bl	rtc1_counter_get
	mov	r2, r0
	.loc 4 955 20
	ldr	r3, .L159+16
	str	r2, [r3]
	.loc 4 957 12
	movs	r3, #0
	.loc 4 958 1
	mov	r0, r3
	pop	{r3, pc}
.L160:
	.align	2
.L159:
	.word	m_op_queue
	.word	mp_timer_id_head
	.word	m_ticks_elapsed_q_read_ind
	.word	m_ticks_elapsed_q_write_ind
	.word	m_ticks_latest
.LFE180:
	.size	app_timer_init, .-app_timer_init
	.section	.text.app_timer_create,"ax",%progbits
	.align	1
	.global	app_timer_create
	.syntax unified
	.thumb
	.thumb_func
	.fpu softvfp
	.type	app_timer_create, %function
app_timer_create:
.LFB181:
	.loc 4 964 1
	@ args = 0, pretend = 0, frame = 24
	@ frame_needed = 0, uses_anonymous_args = 0
	@ link register save eliminated.
	sub	sp, sp, #24
.LCFI61:
	str	r0, [sp, #12]
	mov	r3, r1
	str	r2, [sp, #4]
	strb	r3, [sp, #11]
	.loc 4 966 5
	ldr	r3, .L167
	ldrb	r3, [r3, #2]	@ zero_extendqisi2
	cmp	r3, #0
	bne	.L162
	.loc 4 966 5 is_stmt 0 discriminator 1
	movs	r3, #8
	b	.L163
.L162:
	.loc 4 968 8 is_stmt 1
	ldr	r3, [sp, #4]
	cmp	r3, #0
	bne	.L164
	.loc 4 970 16
	movs	r3, #7
	b	.L163
.L164:
	.loc 4 972 8
	ldr	r3, [sp, #12]
	cmp	r3, #0
	bne	.L165
	.loc 4 974 16
	movs	r3, #7
	b	.L163
.L165:
	.loc 4 976 10
	ldr	r3, [sp, #12]
	ldr	r3, [r3]
	.loc 4 976 37
	ldrb	r3, [r3, #16]	@ zero_extendqisi2
	.loc 4 976 8
	cmp	r3, #0
	beq	.L166
	.loc 4 978 16
	movs	r3, #8
	b	.L163
.L166:
	.loc 4 981 20
	ldr	r3, [sp, #12]
	ldr	r3, [r3]
	str	r3, [sp, #20]
	.loc 4 982 31
	ldr	r3, [sp, #20]
	movs	r2, #0
	strb	r2, [r3, #16]
	.loc 4 983 31
	ldr	r3, [sp, #20]
	ldrb	r2, [sp, #11]
	strb	r2, [r3, #17]
	.loc 4 984 31
	ldr	r3, [sp, #20]
	ldr	r2, [sp, #4]
	str	r2, [r3, #20]
	.loc 4 985 12
	movs	r3, #0
.L163:
	.loc 4 986 1
	mov	r0, r3
	add	sp, sp, #24
.LCFI62:
	@ sp needed
	bx	lr
.L168:
	.align	2
.L167:
	.word	m_op_queue
.LFE181:
	.size	app_timer_create, .-app_timer_create
	.section	.text.app_timer_start,"ax",%progbits
	.align	1
	.global	app_timer_start
	.syntax unified
	.thumb
	.thumb_func
	.fpu softvfp
	.type	app_timer_start, %function
app_timer_start:
.LFB182:
	.loc 4 989 1
	@ args = 0, pretend = 0, frame = 24
	@ frame_needed = 0, uses_anonymous_args = 0
	push	{lr}
.LCFI63:
	sub	sp, sp, #28
.LCFI64:
	str	r0, [sp, #12]
	str	r1, [sp, #8]
	str	r2, [sp, #4]
	.loc 4 991 20
	ldr	r3, [sp, #12]
	str	r3, [sp, #20]
	.loc 4 994 5
	ldr	r3, .L177
	ldrb	r3, [r3, #2]	@ zero_extendqisi2
	cmp	r3, #0
	bne	.L170
	.loc 4 994 5 is_stmt 0 discriminator 1
	movs	r3, #8
	b	.L171
.L170:
	.loc 4 996 8 is_stmt 1
	ldr	r3, [sp, #12]
	cmp	r3, #0
	bne	.L172
	.loc 4 998 16
	movs	r3, #8
	b	.L171
.L172:
	.loc 4 1000 8
	ldr	r3, [sp, #8]
	cmp	r3, #4
	bhi	.L173
	.loc 4 1002 16
	movs	r3, #7
	b	.L171
.L173:
	.loc 4 1004 15
	ldr	r3, [sp, #20]
	ldr	r3, [r3, #20]
	.loc 4 1004 8
	cmp	r3, #0
	bne	.L174
	.loc 4 1006 16
	movs	r3, #8
	b	.L171
.L174:
	.loc 4 1010 31
	ldr	r3, [sp, #20]
	ldrb	r3, [r3, #17]	@ zero_extendqisi2
	.loc 4 1010 82
	cmp	r3, #1
	bne	.L175
	.loc 4 1010 82 is_stmt 0 discriminator 1
	ldr	r3, [sp, #8]
	b	.L176
.L175:
	.loc 4 1010 82 discriminator 2
	movs	r3, #0
.L176:
	.loc 4 1010 22 is_stmt 1 discriminator 4
	str	r3, [sp, #16]
	.loc 4 1012 12 discriminator 4
	ldr	r3, [sp, #4]
	ldr	r2, [sp, #16]
	ldr	r1, [sp, #8]
	ldr	r0, [sp, #20]
	bl	timer_start_op_schedule
	mov	r3, r0
.L171:
	.loc 4 1016 1
	mov	r0, r3
	add	sp, sp, #28
.LCFI65:
	@ sp needed
	ldr	pc, [sp], #4
.L178:
	.align	2
.L177:
	.word	m_op_queue
.LFE182:
	.size	app_timer_start, .-app_timer_start
	.section	.text.app_timer_stop,"ax",%progbits
	.align	1
	.global	app_timer_stop
	.syntax unified
	.thumb
	.thumb_func
	.fpu softvfp
	.type	app_timer_stop, %function
app_timer_stop:
.LFB183:
	.loc 4 1020 1
	@ args = 0, pretend = 0, frame = 16
	@ frame_needed = 0, uses_anonymous_args = 0
	push	{lr}
.LCFI66:
	sub	sp, sp, #20
.LCFI67:
	str	r0, [sp, #4]
	.loc 4 1021 20
	ldr	r3, [sp, #4]
	str	r3, [sp, #12]
	.loc 4 1023 5
	ldr	r3, .L184
	ldrb	r3, [r3, #2]	@ zero_extendqisi2
	cmp	r3, #0
	bne	.L180
	.loc 4 1023 5 is_stmt 0 discriminator 1
	movs	r3, #8
	b	.L181
.L180:
	.loc 4 1025 8 is_stmt 1
	ldr	r3, [sp, #4]
	cmp	r3, #0
	beq	.L182
	.loc 4 1025 38 discriminator 1
	ldr	r3, [sp, #12]
	ldr	r3, [r3, #20]
	.loc 4 1025 28 discriminator 1
	cmp	r3, #0
	bne	.L183
.L182:
	.loc 4 1027 16
	movs	r3, #8
	b	.L181
.L183:
	.loc 4 1030 24
	ldr	r3, [sp, #12]
	movs	r2, #0
	strb	r2, [r3, #16]
	.loc 4 1033 12
	movs	r1, #2
	ldr	r0, [sp, #12]
	bl	timer_stop_op_schedule
	mov	r3, r0
.L181:
	.loc 4 1034 1
	mov	r0, r3
	add	sp, sp, #20
.LCFI68:
	@ sp needed
	ldr	pc, [sp], #4
.L185:
	.align	2
.L184:
	.word	m_op_queue
.LFE183:
	.size	app_timer_stop, .-app_timer_stop
	.section	.text.app_timer_stop_all,"ax",%progbits
	.align	1
	.global	app_timer_stop_all
	.syntax unified
	.thumb
	.thumb_func
	.fpu softvfp
	.type	app_timer_stop_all, %function
app_timer_stop_all:
.LFB184:
	.loc 4 1038 1
	@ args = 0, pretend = 0, frame = 0
	@ frame_needed = 0, uses_anonymous_args = 0
	push	{r3, lr}
.LCFI69:
	.loc 4 1040 5
	ldr	r3, .L189
	ldrb	r3, [r3, #2]	@ zero_extendqisi2
	cmp	r3, #0
	bne	.L187
	.loc 4 1040 5 is_stmt 0 discriminator 1
	movs	r3, #8
	b	.L188
.L187:
	.loc 4 1042 12 is_stmt 1
	movs	r1, #3
	movs	r0, #0
	bl	timer_stop_op_schedule
	mov	r3, r0
.L188:
	.loc 4 1043 1
	mov	r0, r3
	pop	{r3, pc}
.L190:
	.align	2
.L189:
	.word	m_op_queue
.LFE184:
	.size	app_timer_stop_all, .-app_timer_stop_all
	.section	.text.app_timer_cnt_get,"ax",%progbits
	.align	1
	.global	app_timer_cnt_get
	.syntax unified
	.thumb
	.thumb_func
	.fpu softvfp
	.type	app_timer_cnt_get, %function
app_timer_cnt_get:
.LFB185:
	.loc 4 1047 1
	@ args = 0, pretend = 0, frame = 0
	@ frame_needed = 0, uses_anonymous_args = 0
	push	{r3, lr}
.LCFI70:
	.loc 4 1048 12
	bl	rtc1_counter_get
	mov	r3, r0
	.loc 4 1049 1
	mov	r0, r3
	pop	{r3, pc}
.LFE185:
	.size	app_timer_cnt_get, .-app_timer_cnt_get
	.section	.text.app_timer_cnt_diff_compute,"ax",%progbits
	.align	1
	.global	app_timer_cnt_diff_compute
	.syntax unified
	.thumb
	.thumb_func
	.fpu softvfp
	.type	app_timer_cnt_diff_compute, %function
app_timer_cnt_diff_compute:
.LFB186:
	.loc 4 1054 1
	@ args = 0, pretend = 0, frame = 8
	@ frame_needed = 0, uses_anonymous_args = 0
	push	{lr}
.LCFI71:
	sub	sp, sp, #12
.LCFI72:
	str	r0, [sp, #4]
	str	r1, [sp]
	.loc 4 1055 12
	ldr	r1, [sp]
	ldr	r0, [sp, #4]
	bl	ticks_diff_get
	mov	r3, r0
	.loc 4 1056 1
	mov	r0, r3
	add	sp, sp, #12
.LCFI73:
	@ sp needed
	ldr	pc, [sp], #4
.LFE186:
	.size	app_timer_cnt_diff_compute, .-app_timer_cnt_diff_compute
	.section	.text.app_timer_pause,"ax",%progbits
	.align	1
	.global	app_timer_pause
	.syntax unified
	.thumb
	.thumb_func
	.fpu softvfp
	.type	app_timer_pause, %function
app_timer_pause:
.LFB187:
	.loc 4 1066 1
	@ args = 0, pretend = 0, frame = 0
	@ frame_needed = 0, uses_anonymous_args = 0
	@ link register save eliminated.
	.loc 4 1067 13
	ldr	r3, .L196
	.loc 4 1067 26
	movs	r2, #1
	str	r2, [r3, #4]
	.loc 4 1068 1
	nop
	bx	lr
.L197:
	.align	2
.L196:
	.word	1073811456
.LFE187:
	.size	app_timer_pause, .-app_timer_pause
	.section	.text.app_timer_resume,"ax",%progbits
	.align	1
	.global	app_timer_resume
	.syntax unified
	.thumb
	.thumb_func
	.fpu softvfp
	.type	app_timer_resume, %function
app_timer_resume:
.LFB188:
	.loc 4 1071 1
	@ args = 0, pretend = 0, frame = 0
	@ frame_needed = 0, uses_anonymous_args = 0
	@ link register save eliminated.
	.loc 4 1072 13
	ldr	r3, .L199
	.loc 4 1072 27
	movs	r2, #1
	str	r2, [r3]
	.loc 4 1073 1
	nop
	bx	lr
.L200:
	.align	2
.L199:
	.word	1073811456
.LFE188:
	.size	app_timer_resume, .-app_timer_resume
	.section	.rodata.delay_machine_code.6893,"a"
	.align	4
	.type	delay_machine_code.6893, %object
	.size	delay_machine_code.6893, 6
delay_machine_code.6893:
	.short	14339
	.short	-9987
	.short	18288
	.section	.debug_frame,"",%progbits
.Lframe0:
	.4byte	.LECIE0-.LSCIE0
.LSCIE0:
	.4byte	0xffffffff
	.byte	0x3
	.ascii	"\000"
	.uleb128 0x1
	.sleb128 -4
	.uleb128 0xe
	.byte	0xc
	.uleb128 0xd
	.uleb128 0
	.align	2
.LECIE0:
.LSFDE0:
	.4byte	.LEFDE0-.LASFDE0
.LASFDE0:
	.4byte	.Lframe0
	.4byte	.LFB109
	.4byte	.LFE109-.LFB109
	.byte	0x4
	.4byte	.LCFI0-.LFB109
	.byte	0xe
	.uleb128 0x8
	.byte	0x4
	.4byte	.LCFI1-.LCFI0
	.byte	0xe
	.uleb128 0
	.align	2
.LEFDE0:
.LSFDE2:
	.4byte	.LEFDE2-.LASFDE2
.LASFDE2:
	.4byte	.Lframe0
	.4byte	.LFB110
	.4byte	.LFE110-.LFB110
	.byte	0x4
	.4byte	.LCFI2-.LFB110
	.byte	0xe
	.uleb128 0x8
	.byte	0x4
	.4byte	.LCFI3-.LCFI2
	.byte	0xe
	.uleb128 0
	.align	2
.LEFDE2:
.LSFDE4:
	.4byte	.LEFDE4-.LASFDE4
.LASFDE4:
	.4byte	.Lframe0
	.4byte	.LFB112
	.4byte	.LFE112-.LFB112
	.byte	0x4
	.4byte	.LCFI4-.LFB112
	.byte	0xe
	.uleb128 0x8
	.byte	0x4
	.4byte	.LCFI5-.LCFI4
	.byte	0xe
	.uleb128 0
	.align	2
.LEFDE4:
.LSFDE6:
	.4byte	.LEFDE6-.LASFDE6
.LASFDE6:
	.4byte	.Lframe0
	.4byte	.LFB113
	.4byte	.LFE113-.LFB113
	.byte	0x4
	.4byte	.LCFI6-.LFB113
	.byte	0xe
	.uleb128 0x8
	.byte	0x4
	.4byte	.LCFI7-.LCFI6
	.byte	0xe
	.uleb128 0
	.align	2
.LEFDE6:
.LSFDE8:
	.4byte	.LEFDE8-.LASFDE8
.LASFDE8:
	.4byte	.Lframe0
	.4byte	.LFB115
	.4byte	.LFE115-.LFB115
	.byte	0x4
	.4byte	.LCFI8-.LFB115
	.byte	0xe
	.uleb128 0x8
	.byte	0x4
	.4byte	.LCFI9-.LCFI8
	.byte	0xe
	.uleb128 0
	.align	2
.LEFDE8:
.LSFDE10:
	.4byte	.LEFDE10-.LASFDE10
.LASFDE10:
	.4byte	.Lframe0
	.4byte	.LFB124
	.4byte	.LFE124-.LFB124
	.align	2
.LEFDE10:
.LSFDE12:
	.4byte	.LEFDE12-.LASFDE12
.LASFDE12:
	.4byte	.Lframe0
	.4byte	.LFB155
	.4byte	.LFE155-.LFB155
	.byte	0x4
	.4byte	.LCFI10-.LFB155
	.byte	0xe
	.uleb128 0x4
	.byte	0x8e
	.uleb128 0x1
	.byte	0x4
	.4byte	.LCFI11-.LCFI10
	.byte	0xe
	.uleb128 0x18
	.byte	0x4
	.4byte	.LCFI12-.LCFI11
	.byte	0xe
	.uleb128 0x4
	.align	2
.LEFDE12:
.LSFDE14:
	.4byte	.LEFDE14-.LASFDE14
.LASFDE14:
	.4byte	.Lframe0
	.4byte	.LFB157
	.4byte	.LFE157-.LFB157
	.byte	0x4
	.4byte	.LCFI13-.LFB157
	.byte	0xe
	.uleb128 0x4
	.byte	0x8e
	.uleb128 0x1
	.byte	0x4
	.4byte	.LCFI14-.LCFI13
	.byte	0xe
	.uleb128 0x10
	.byte	0x4
	.4byte	.LCFI15-.LCFI14
	.byte	0xe
	.uleb128 0x4
	.align	2
.LEFDE14:
.LSFDE16:
	.4byte	.LEFDE16-.LASFDE16
.LASFDE16:
	.4byte	.Lframe0
	.4byte	.LFB158
	.4byte	.LFE158-.LFB158
	.byte	0x4
	.4byte	.LCFI16-.LFB158
	.byte	0xe
	.uleb128 0x8
	.byte	0x83
	.uleb128 0x2
	.byte	0x8e
	.uleb128 0x1
	.align	2
.LEFDE16:
.LSFDE18:
	.4byte	.LEFDE18-.LASFDE18
.LASFDE18:
	.4byte	.Lframe0
	.4byte	.LFB159
	.4byte	.LFE159-.LFB159
	.byte	0x4
	.4byte	.LCFI17-.LFB159
	.byte	0xe
	.uleb128 0x8
	.byte	0x83
	.uleb128 0x2
	.byte	0x8e
	.uleb128 0x1
	.align	2
.LEFDE18:
.LSFDE20:
	.4byte	.LEFDE20-.LASFDE20
.LASFDE20:
	.4byte	.Lframe0
	.4byte	.LFB160
	.4byte	.LFE160-.LFB160
	.align	2
.LEFDE20:
.LSFDE22:
	.4byte	.LEFDE22-.LASFDE22
.LASFDE22:
	.4byte	.Lframe0
	.4byte	.LFB161
	.4byte	.LFE161-.LFB161
	.byte	0x4
	.4byte	.LCFI18-.LFB161
	.byte	0xe
	.uleb128 0x8
	.byte	0x4
	.4byte	.LCFI19-.LCFI18
	.byte	0xe
	.uleb128 0
	.align	2
.LEFDE22:
.LSFDE24:
	.4byte	.LEFDE24-.LASFDE24
.LASFDE24:
	.4byte	.Lframe0
	.4byte	.LFB162
	.4byte	.LFE162-.LFB162
	.byte	0x4
	.4byte	.LCFI20-.LFB162
	.byte	0xe
	.uleb128 0x8
	.byte	0x4
	.4byte	.LCFI21-.LCFI20
	.byte	0xe
	.uleb128 0
	.align	2
.LEFDE24:
.LSFDE26:
	.4byte	.LEFDE26-.LASFDE26
.LASFDE26:
	.4byte	.Lframe0
	.4byte	.LFB163
	.4byte	.LFE163-.LFB163
	.byte	0x4
	.4byte	.LCFI22-.LFB163
	.byte	0xe
	.uleb128 0x18
	.byte	0x4
	.4byte	.LCFI23-.LCFI22
	.byte	0xe
	.uleb128 0
	.align	2
.LEFDE26:
.LSFDE28:
	.4byte	.LEFDE28-.LASFDE28
.LASFDE28:
	.4byte	.Lframe0
	.4byte	.LFB164
	.4byte	.LFE164-.LFB164
	.byte	0x4
	.4byte	.LCFI24-.LFB164
	.byte	0xe
	.uleb128 0x4
	.byte	0x8e
	.uleb128 0x1
	.byte	0x4
	.4byte	.LCFI25-.LCFI24
	.byte	0xe
	.uleb128 0x20
	.byte	0x4
	.4byte	.LCFI26-.LCFI25
	.byte	0xe
	.uleb128 0x4
	.align	2
.LEFDE28:
.LSFDE30:
	.4byte	.LEFDE30-.LASFDE30
.LASFDE30:
	.4byte	.Lframe0
	.4byte	.LFB165
	.4byte	.LFE165-.LFB165
	.byte	0x4
	.4byte	.LCFI27-.LFB165
	.byte	0xe
	.uleb128 0x8
	.byte	0x83
	.uleb128 0x2
	.byte	0x8e
	.uleb128 0x1
	.align	2
.LEFDE30:
.LSFDE32:
	.4byte	.LEFDE32-.LASFDE32
.LASFDE32:
	.4byte	.Lframe0
	.4byte	.LFB166
	.4byte	.LFE166-.LFB166
	.byte	0x4
	.4byte	.LCFI28-.LFB166
	.byte	0xe
	.uleb128 0x8
	.byte	0x83
	.uleb128 0x2
	.byte	0x8e
	.uleb128 0x1
	.align	2
.LEFDE32:
.LSFDE34:
	.4byte	.LEFDE34-.LASFDE34
.LASFDE34:
	.4byte	.Lframe0
	.4byte	.LFB167
	.4byte	.LFE167-.LFB167
	.byte	0x4
	.4byte	.LCFI29-.LFB167
	.byte	0xe
	.uleb128 0x4
	.byte	0x8e
	.uleb128 0x1
	.byte	0x4
	.4byte	.LCFI30-.LCFI29
	.byte	0xe
	.uleb128 0x10
	.byte	0x4
	.4byte	.LCFI31-.LCFI30
	.byte	0xe
	.uleb128 0x4
	.align	2
.LEFDE34:
.LSFDE36:
	.4byte	.LEFDE36-.LASFDE36
.LASFDE36:
	.4byte	.Lframe0
	.4byte	.LFB168
	.4byte	.LFE168-.LFB168
	.byte	0x4
	.4byte	.LCFI32-.LFB168
	.byte	0xe
	.uleb128 0x4
	.byte	0x8e
	.uleb128 0x1
	.byte	0x4
	.4byte	.LCFI33-.LCFI32
	.byte	0xe
	.uleb128 0x18
	.byte	0x4
	.4byte	.LCFI34-.LCFI33
	.byte	0xe
	.uleb128 0x4
	.align	2
.LEFDE36:
.LSFDE38:
	.4byte	.LEFDE38-.LASFDE38
.LASFDE38:
	.4byte	.Lframe0
	.4byte	.LFB169
	.4byte	.LFE169-.LFB169
	.byte	0x4
	.4byte	.LCFI35-.LFB169
	.byte	0xe
	.uleb128 0x8
	.byte	0x4
	.4byte	.LCFI36-.LCFI35
	.byte	0xe
	.uleb128 0
	.align	2
.LEFDE38:
.LSFDE40:
	.4byte	.LEFDE40-.LASFDE40
.LASFDE40:
	.4byte	.Lframe0
	.4byte	.LFB170
	.4byte	.LFE170-.LFB170
	.byte	0x4
	.4byte	.LCFI37-.LFB170
	.byte	0xe
	.uleb128 0x20
	.byte	0x4
	.4byte	.LCFI38-.LCFI37
	.byte	0xe
	.uleb128 0
	.align	2
.LEFDE40:
.LSFDE42:
	.4byte	.LEFDE42-.LASFDE42
.LASFDE42:
	.4byte	.Lframe0
	.4byte	.LFB171
	.4byte	.LFE171-.LFB171
	.byte	0x4
	.4byte	.LCFI39-.LFB171
	.byte	0xe
	.uleb128 0x4
	.byte	0x8e
	.uleb128 0x1
	.byte	0x4
	.4byte	.LCFI40-.LCFI39
	.byte	0xe
	.uleb128 0x28
	.byte	0x4
	.4byte	.LCFI41-.LCFI40
	.byte	0xe
	.uleb128 0x4
	.align	2
.LEFDE42:
.LSFDE44:
	.4byte	.LEFDE44-.LASFDE44
.LASFDE44:
	.4byte	.Lframe0
	.4byte	.LFB172
	.4byte	.LFE172-.LFB172
	.byte	0x4
	.4byte	.LCFI42-.LFB172
	.byte	0xe
	.uleb128 0x8
	.byte	0x84
	.uleb128 0x2
	.byte	0x8e
	.uleb128 0x1
	.byte	0x4
	.4byte	.LCFI43-.LCFI42
	.byte	0xe
	.uleb128 0x28
	.byte	0x4
	.4byte	.LCFI44-.LCFI43
	.byte	0xe
	.uleb128 0x8
	.align	2
.LEFDE44:
.LSFDE46:
	.4byte	.LEFDE46-.LASFDE46
.LASFDE46:
	.4byte	.Lframe0
	.4byte	.LFB173
	.4byte	.LFE173-.LFB173
	.byte	0x4
	.4byte	.LCFI45-.LFB173
	.byte	0xe
	.uleb128 0x4
	.byte	0x8e
	.uleb128 0x1
	.byte	0x4
	.4byte	.LCFI46-.LCFI45
	.byte	0xe
	.uleb128 0x20
	.byte	0x4
	.4byte	.LCFI47-.LCFI46
	.byte	0xe
	.uleb128 0x4
	.align	2
.LEFDE46:
.LSFDE48:
	.4byte	.LEFDE48-.LASFDE48
.LASFDE48:
	.4byte	.Lframe0
	.4byte	.LFB174
	.4byte	.LFE174-.LFB174
	.byte	0x4
	.4byte	.LCFI48-.LFB174
	.byte	0xe
	.uleb128 0x8
	.byte	0x4
	.4byte	.LCFI49-.LCFI48
	.byte	0xe
	.uleb128 0
	.align	2
.LEFDE48:
.LSFDE50:
	.4byte	.LEFDE50-.LASFDE50
.LASFDE50:
	.4byte	.Lframe0
	.4byte	.LFB175
	.4byte	.LFE175-.LFB175
	.byte	0x4
	.4byte	.LCFI50-.LFB175
	.byte	0xe
	.uleb128 0x10
	.byte	0x4
	.4byte	.LCFI51-.LCFI50
	.byte	0xe
	.uleb128 0
	.align	2
.LEFDE50:
.LSFDE52:
	.4byte	.LEFDE52-.LASFDE52
.LASFDE52:
	.4byte	.Lframe0
	.4byte	.LFB176
	.4byte	.LFE176-.LFB176
	.byte	0x4
	.4byte	.LCFI52-.LFB176
	.byte	0xe
	.uleb128 0x4
	.byte	0x8e
	.uleb128 0x1
	.byte	0x4
	.4byte	.LCFI53-.LCFI52
	.byte	0xe
	.uleb128 0x28
	.byte	0x4
	.4byte	.LCFI54-.LCFI53
	.byte	0xe
	.uleb128 0x4
	.align	2
.LEFDE52:
.LSFDE54:
	.4byte	.LEFDE54-.LASFDE54
.LASFDE54:
	.4byte	.Lframe0
	.4byte	.LFB177
	.4byte	.LFE177-.LFB177
	.byte	0x4
	.4byte	.LCFI55-.LFB177
	.byte	0xe
	.uleb128 0x4
	.byte	0x8e
	.uleb128 0x1
	.byte	0x4
	.4byte	.LCFI56-.LCFI55
	.byte	0xe
	.uleb128 0x20
	.byte	0x4
	.4byte	.LCFI57-.LCFI56
	.byte	0xe
	.uleb128 0x4
	.align	2
.LEFDE54:
.LSFDE56:
	.4byte	.LEFDE56-.LASFDE56
.LASFDE56:
	.4byte	.Lframe0
	.4byte	.LFB178
	.4byte	.LFE178-.LFB178
	.byte	0x4
	.4byte	.LCFI58-.LFB178
	.byte	0xe
	.uleb128 0x8
	.byte	0x83
	.uleb128 0x2
	.byte	0x8e
	.uleb128 0x1
	.align	2
.LEFDE56:
.LSFDE58:
	.4byte	.LEFDE58-.LASFDE58
.LASFDE58:
	.4byte	.Lframe0
	.4byte	.LFB179
	.4byte	.LFE179-.LFB179
	.byte	0x4
	.4byte	.LCFI59-.LFB179
	.byte	0xe
	.uleb128 0x8
	.byte	0x83
	.uleb128 0x2
	.byte	0x8e
	.uleb128 0x1
	.align	2
.LEFDE58:
.LSFDE60:
	.4byte	.LEFDE60-.LASFDE60
.LASFDE60:
	.4byte	.Lframe0
	.4byte	.LFB180
	.4byte	.LFE180-.LFB180
	.byte	0x4
	.4byte	.LCFI60-.LFB180
	.byte	0xe
	.uleb128 0x8
	.byte	0x83
	.uleb128 0x2
	.byte	0x8e
	.uleb128 0x1
	.align	2
.LEFDE60:
.LSFDE62:
	.4byte	.LEFDE62-.LASFDE62
.LASFDE62:
	.4byte	.Lframe0
	.4byte	.LFB181
	.4byte	.LFE181-.LFB181
	.byte	0x4
	.4byte	.LCFI61-.LFB181
	.byte	0xe
	.uleb128 0x18
	.byte	0x4
	.4byte	.LCFI62-.LCFI61
	.byte	0xe
	.uleb128 0
	.align	2
.LEFDE62:
.LSFDE64:
	.4byte	.LEFDE64-.LASFDE64
.LASFDE64:
	.4byte	.Lframe0
	.4byte	.LFB182
	.4byte	.LFE182-.LFB182
	.byte	0x4
	.4byte	.LCFI63-.LFB182
	.byte	0xe
	.uleb128 0x4
	.byte	0x8e
	.uleb128 0x1
	.byte	0x4
	.4byte	.LCFI64-.LCFI63
	.byte	0xe
	.uleb128 0x20
	.byte	0x4
	.4byte	.LCFI65-.LCFI64
	.byte	0xe
	.uleb128 0x4
	.align	2
.LEFDE64:
.LSFDE66:
	.4byte	.LEFDE66-.LASFDE66
.LASFDE66:
	.4byte	.Lframe0
	.4byte	.LFB183
	.4byte	.LFE183-.LFB183
	.byte	0x4
	.4byte	.LCFI66-.LFB183
	.byte	0xe
	.uleb128 0x4
	.byte	0x8e
	.uleb128 0x1
	.byte	0x4
	.4byte	.LCFI67-.LCFI66
	.byte	0xe
	.uleb128 0x18
	.byte	0x4
	.4byte	.LCFI68-.LCFI67
	.byte	0xe
	.uleb128 0x4
	.align	2
.LEFDE66:
.LSFDE68:
	.4byte	.LEFDE68-.LASFDE68
.LASFDE68:
	.4byte	.Lframe0
	.4byte	.LFB184
	.4byte	.LFE184-.LFB184
	.byte	0x4
	.4byte	.LCFI69-.LFB184
	.byte	0xe
	.uleb128 0x8
	.byte	0x83
	.uleb128 0x2
	.byte	0x8e
	.uleb128 0x1
	.align	2
.LEFDE68:
.LSFDE70:
	.4byte	.LEFDE70-.LASFDE70
.LASFDE70:
	.4byte	.Lframe0
	.4byte	.LFB185
	.4byte	.LFE185-.LFB185
	.byte	0x4
	.4byte	.LCFI70-.LFB185
	.byte	0xe
	.uleb128 0x8
	.byte	0x83
	.uleb128 0x2
	.byte	0x8e
	.uleb128 0x1
	.align	2
.LEFDE70:
.LSFDE72:
	.4byte	.LEFDE72-.LASFDE72
.LASFDE72:
	.4byte	.Lframe0
	.4byte	.LFB186
	.4byte	.LFE186-.LFB186
	.byte	0x4
	.4byte	.LCFI71-.LFB186
	.byte	0xe
	.uleb128 0x4
	.byte	0x8e
	.uleb128 0x1
	.byte	0x4
	.4byte	.LCFI72-.LCFI71
	.byte	0xe
	.uleb128 0x10
	.byte	0x4
	.4byte	.LCFI73-.LCFI72
	.byte	0xe
	.uleb128 0x4
	.align	2
.LEFDE72:
.LSFDE74:
	.4byte	.LEFDE74-.LASFDE74
.LASFDE74:
	.4byte	.Lframe0
	.4byte	.LFB187
	.4byte	.LFE187-.LFB187
	.align	2
.LEFDE74:
.LSFDE76:
	.4byte	.LEFDE76-.LASFDE76
.LASFDE76:
	.4byte	.Lframe0
	.4byte	.LFB188
	.4byte	.LFE188-.LFB188
	.align	2
.LEFDE76:
	.text
.Letext0:
	.file 5 "C:/gu/arm_segger_embedded_studio_v420a_win_x64_nordic/include/stdint.h"
	.file 6 "C:/gu/arm_segger_embedded_studio_v420a_win_x64_nordic/include/__crossworks.h"
	.file 7 "./../../../../../../../components/libraries/util/sdk_errors.h"
	.file 8 "./../../../../../../../modules/nrfx/mdk/nrf52840.h"
	.file 9 "./../../../../../../../modules/nrfx/mdk/system_nrf52840.h"
	.file 10 "./../../../../../../../components/libraries/util/app_util.h"
	.file 11 "C:/gu/arm_segger_embedded_studio_v420a_win_x64_nordic/include/stdio.h"
	.file 12 "C:\\Users\\BertLenovo\\Downloads\\nRF5_2\\components\\libraries\\timer\\app_timer.h"