	.cpu cortex-m4
	.eabi_attribute 20, 1
	.eabi_attribute 21, 1
	.eabi_attribute 23, 3
	.eabi_attribute 24, 1
	.eabi_attribute 25, 1
	.eabi_attribute 26, 1
	.eabi_attribute 30, 6
	.eabi_attribute 34, 1
	.eabi_attribute 18, 4
	.file	"app_gpiote.c"
	.text
.Ltext0:
	.section	.text.sd_mbr_command,"ax",%progbits
	.align	1
	.syntax unified
	.thumb
	.thumb_func
	.fpu softvfp
	.type	sd_mbr_command, %function
sd_mbr_command:
.LFB124:
	.file 1 "./../../../../../../../components/softdevice/mbr/nrf52840/headers/nrf_mbr.h"
	.loc 1 257 1
	@ Naked Function: prologue and epilogue provided by programmer.
	@ args = 0, pretend = 0, frame = 0
	@ frame_needed = 0, uses_anonymous_args = 0
	.loc 1 257 1
	.syntax unified
@ 257 "./../../../../../../../components/softdevice/mbr/nrf52840/headers/nrf_mbr.h" 1
	svc #24
bx r14
@ 0 "" 2
	.thumb
	.syntax unified
	nop
	mov	r0, r3
.LFE124:
	.size	sd_mbr_command, .-sd_mbr_command
	.section	.text.is_word_aligned,"ax",%progbits
	.align	1
	.syntax unified
	.thumb
	.thumb_func
	.fpu softvfp
	.type	is_word_aligned, %function
is_word_aligned:
.LFB141:
	.file 2 "./../../../../../../../components/libraries/util/app_util.h"
	.loc 2 1290 1
	@ args = 0, pretend = 0, frame = 8
	@ frame_needed = 0, uses_anonymous_args = 0
	@ link register save eliminated.
	sub	sp, sp, #8
.LCFI0:
	str	r0, [sp, #4]
	.loc 2 1291 14
	ldr	r3, [sp, #4]
	.loc 2 1291 27
	and	r3, r3, #3
	.loc 2 1291 35
	cmp	r3, #0
	ite	eq
	moveq	r3, #1
	movne	r3, #0
	uxtb	r3, r3
	.loc 2 1292 1
	mov	r0, r3
	add	sp, sp, #8
.LCFI1:
	@ sp needed
	bx	lr
.LFE141:
	.size	is_word_aligned, .-is_word_aligned
	.section	.text.nrf_gpio_port_in_read,"ax",%progbits
	.align	1
	.syntax unified
	.thumb
	.thumb_func
	.fpu softvfp
	.type	nrf_gpio_port_in_read, %function
nrf_gpio_port_in_read:
.LFB201:
	.file 3 "./../../../../../../../modules/nrfx/hal/nrf_gpio.h"
	.loc 3 757 1
	@ args = 0, pretend = 0, frame = 8
	@ frame_needed = 0, uses_anonymous_args = 0
	@ link register save eliminated.
	sub	sp, sp, #8
.LCFI2:
	str	r0, [sp, #4]
	.loc 3 758 17
	ldr	r3, [sp, #4]
	ldr	r3, [r3, #1296]
	.loc 3 759 1
	mov	r0, r3
	add	sp, sp, #8
.LCFI3:
	@ sp needed
	bx	lr
.LFE201:
	.size	nrf_gpio_port_in_read, .-nrf_gpio_port_in_read
	.section .rodata
	.align	2
.LC0:
	.word	1342177280
	.word	1342178048
	.section	.text.nrf_gpio_ports_read,"ax",%progbits
	.align	1
	.syntax unified
	.thumb
	.thumb_func
	.fpu softvfp
	.type	nrf_gpio_ports_read, %function
nrf_gpio_ports_read:
.LFB206:
	.loc 3 787 1
	@ args = 0, pretend = 0, frame = 32
	@ frame_needed = 0, uses_anonymous_args = 0
	push	{lr}
.LCFI4:
	sub	sp, sp, #36
.LCFI5:
	str	r0, [sp, #12]
	str	r1, [sp, #8]
	str	r2, [sp, #4]
	.loc 3 788 21
	ldr	r2, .L9
	add	r3, sp, #20
	ldm	r2, {r0, r1}
	stm	r3, {r0, r1}
	.loc 3 793 12
	ldr	r3, [sp, #12]
	str	r3, [sp, #28]
	.loc 3 793 5
	b	.L7
.L8:
	.loc 3 795 51 discriminator 3
	ldr	r3, [sp, #28]
	lsls	r3, r3, #2
	add	r2, sp, #32
	add	r3, r3, r2
	ldr	r3, [r3, #-12]
	.loc 3 795 20 discriminator 3
	mov	r0, r3
	bl	nrf_gpio_port_in_read
	mov	r2, r0
	.loc 3 795 18 discriminator 3
	ldr	r3, [sp, #4]
	str	r2, [r3]
	.loc 3 796 16 discriminator 3
	ldr	r3, [sp, #4]
	adds	r3, r3, #4
	str	r3, [sp, #4]
	.loc 3 793 54 discriminator 3
	ldr	r3, [sp, #28]
	adds	r3, r3, #1
	str	r3, [sp, #28]
.L7:
	.loc 3 793 42 discriminator 1
	ldr	r2, [sp, #12]
	ldr	r3, [sp, #8]
	add	r3, r3, r2
	.loc 3 793 5 discriminator 1
	ldr	r2, [sp, #28]
	cmp	r2, r3
	bcc	.L8
	.loc 3 798 1
	nop
	add	sp, sp, #36
.LCFI6:
	@ sp needed
	ldr	pc, [sp], #4
.L10:
	.align	2
.L9:
	.word	.LC0
.LFE206:
	.size	nrf_gpio_ports_read, .-nrf_gpio_ports_read
	.section	.text.nrf_bitmask_bit_is_set,"ax",%progbits
	.align	1
	.syntax unified
	.thumb
	.thumb_func
	.fpu softvfp
	.type	nrf_bitmask_bit_is_set, %function
nrf_bitmask_bit_is_set:
.LFB210:
	.file 4 "./../../../../../../../components/libraries/util/nrf_bitmask.h"
	.loc 4 62 1
	@ args = 0, pretend = 0, frame = 16
	@ frame_needed = 0, uses_anonymous_args = 0
	@ link register save eliminated.
	sub	sp, sp, #16
.LCFI7:
	str	r0, [sp, #4]
	str	r1, [sp]
	.loc 4 63 21
	ldr	r3, [sp]
	str	r3, [sp, #12]
	.loc 4 64 14
	ldr	r3, [sp, #4]
	lsrs	r3, r3, #3
	str	r3, [sp, #8]
	.loc 4 65 9
	ldr	r3, [sp, #4]
	and	r3, r3, #7
	str	r3, [sp, #4]
	.loc 4 66 15
	movs	r2, #1
	ldr	r3, [sp, #4]
	lsl	r3, r2, r3
	.loc 4 66 32
	ldr	r1, [sp, #12]
	ldr	r2, [sp, #8]
	add	r2, r2, r1
	ldrb	r2, [r2]	@ zero_extendqisi2
	.loc 4 66 23
	ands	r3, r3, r2
	.loc 4 67 1
	mov	r0, r3
	add	sp, sp, #16
.LCFI8:
	@ sp needed
	bx	lr
.LFE210:
	.size	nrf_bitmask_bit_is_set, .-nrf_bitmask_bit_is_set
	.section	.text.nrf_bitmask_bit_set,"ax",%progbits
	.align	1
	.syntax unified
	.thumb
	.thumb_func
	.fpu softvfp
	.type	nrf_bitmask_bit_set, %function
nrf_bitmask_bit_set:
.LFB211:
	.loc 4 76 1
	@ args = 0, pretend = 0, frame = 16
	@ frame_needed = 0, uses_anonymous_args = 0
	@ link register save eliminated.
	sub	sp, sp, #16
.LCFI9:
	str	r0, [sp, #4]
	str	r1, [sp]
	.loc 4 77 15
	ldr	r3, [sp]
	str	r3, [sp, #12]
	.loc 4 78 14
	ldr	r3, [sp, #4]
	lsrs	r3, r3, #3
	str	r3, [sp, #8]
	.loc 4 79 9
	ldr	r3, [sp, #4]
	and	r3, r3, #7
	str	r3, [sp, #4]
	.loc 4 80 23
	ldr	r2, [sp, #12]
	ldr	r3, [sp, #8]
	add	r3, r3, r2
	ldrb	r3, [r3]	@ zero_extendqisi2
	sxtb	r2, r3
	.loc 4 80 29
	movs	r1, #1
	ldr	r3, [sp, #4]
	lsl	r3, r1, r3
	.loc 4 80 23
	sxtb	r3, r3
	orrs	r3, r3, r2
	sxtb	r1, r3
	ldr	r2, [sp, #12]
	ldr	r3, [sp, #8]
	add	r3, r3, r2
	uxtb	r2, r1
	strb	r2, [r3]
	.loc 4 81 1
	nop
	add	sp, sp, #16
.LCFI10:
	@ sp needed
	bx	lr
.LFE211:
	.size	nrf_bitmask_bit_set, .-nrf_bitmask_bit_set
	.section	.text.nrf_bitmask_masks_or,"ax",%progbits
	.align	1
	.syntax unified
	.thumb
	.thumb_func
	.fpu softvfp
	.type	nrf_bitmask_masks_or, %function
nrf_bitmask_masks_or:
.LFB213:
	.loc 4 109 1
	@ args = 0, pretend = 0, frame = 32
	@ frame_needed = 0, uses_anonymous_args = 0
	@ link register save eliminated.
	sub	sp, sp, #32
.LCFI11:
	str	r0, [sp, #12]
	str	r1, [sp, #8]
	str	r2, [sp, #4]
	str	r3, [sp]
	.loc 4 110 21
	ldr	r3, [sp, #12]
	str	r3, [sp, #24]
	.loc 4 111 21
	ldr	r3, [sp, #8]
	str	r3, [sp, #20]
	.loc 4 112 15
	ldr	r3, [sp, #4]
	str	r3, [sp, #16]
	.loc 4 114 12
	movs	r3, #0
	str	r3, [sp, #28]
	.loc 4 114 5
	b	.L15
.L16:
	.loc 4 116 35 discriminator 3
	ldr	r2, [sp, #24]
	ldr	r3, [sp, #28]
	add	r3, r3, r2
	ldrb	r1, [r3]	@ zero_extendqisi2
	.loc 4 116 50 discriminator 3
	ldr	r2, [sp, #20]
	ldr	r3, [sp, #28]
	add	r3, r3, r2
	ldrb	r2, [r3]	@ zero_extendqisi2
	.loc 4 116 20 discriminator 3
	ldr	r0, [sp, #16]
	ldr	r3, [sp, #28]
	add	r3, r3, r0
	.loc 4 116 24 discriminator 3
	orrs	r2, r2, r1
	uxtb	r2, r2
	strb	r2, [r3]
	.loc 4 114 30 discriminator 3
	ldr	r3, [sp, #28]
	adds	r3, r3, #1
	str	r3, [sp, #28]
.L15:
	.loc 4 114 5 discriminator 1
	ldr	r2, [sp, #28]
	ldr	r3, [sp]
	cmp	r2, r3
	bcc	.L16
	.loc 4 118 1
	nop
	add	sp, sp, #32
.LCFI12:
	@ sp needed
	bx	lr
.LFE213:
	.size	nrf_bitmask_masks_or, .-nrf_bitmask_masks_or
	.section	.text.nrf_bitmask_masks_and,"ax",%progbits
	.align	1
	.syntax unified
	.thumb
	.thumb_func
	.fpu softvfp
	.type	nrf_bitmask_masks_and, %function
nrf_bitmask_masks_and:
.LFB214:
	.loc 4 132 1
	@ args = 0, pretend = 0, frame = 32
	@ frame_needed = 0, uses_anonymous_args = 0
	@ link register save eliminated.
	sub	sp, sp, #32
.LCFI13:
	str	r0, [sp, #12]
	str	r1, [sp, #8]
	str	r2, [sp, #4]
	str	r3, [sp]
	.loc 4 133 21
	ldr	r3, [sp, #12]
	str	r3, [sp, #24]
	.loc 4 134 21
	ldr	r3, [sp, #8]
	str	r3, [sp, #20]
	.loc 4 135 15
	ldr	r3, [sp, #4]
	str	r3, [sp, #16]
	.loc 4 137 12
	movs	r3, #0
	str	r3, [sp, #28]
	.loc 4 137 5
	b	.L18
.L19:
	.loc 4 139 35 discriminator 3
	ldr	r2, [sp, #24]
	ldr	r3, [sp, #28]
	add	r3, r3, r2
	ldrb	r1, [r3]	@ zero_extendqisi2
	.loc 4 139 50 discriminator 3
	ldr	r2, [sp, #20]
	ldr	r3, [sp, #28]
	add	r3, r3, r2
	ldrb	r2, [r3]	@ zero_extendqisi2
	.loc 4 139 20 discriminator 3
	ldr	r0, [sp, #16]
	ldr	r3, [sp, #28]
	add	r3, r3, r0
	.loc 4 139 24 discriminator 3
	ands	r2, r2, r1
	uxtb	r2, r2
	strb	r2, [r3]
	.loc 4 137 30 discriminator 3
	ldr	r3, [sp, #28]
	adds	r3, r3, #1
	str	r3, [sp, #28]
.L18:
	.loc 4 137 5 discriminator 1
	ldr	r2, [sp, #28]
	ldr	r3, [sp]
	cmp	r2, r3
	bcc	.L19
	.loc 4 141 1
	nop
	add	sp, sp, #32
.LCFI14:
	@ sp needed
	bx	lr
.LFE214:
	.size	nrf_bitmask_masks_and, .-nrf_bitmask_masks_and
	.section	.bss.m_user_array_size,"aw",%nobits
	.type	m_user_array_size, %object
	.size	m_user_array_size, 1
m_user_array_size:
	.space	1
	.section	.bss.m_user_count,"aw",%nobits
	.type	m_user_count, %object
	.size	m_user_count, 1
m_user_count:
	.space	1
	.section	.bss.mp_users,"aw",%nobits
	.align	2
	.type	mp_users, %object
	.size	mp_users, 4
mp_users:
	.space	4
	.section	.bss.m_pins,"aw",%nobits
	.align	2
	.type	m_pins, %object
	.size	m_pins, 8
m_pins:
	.space	8
	.section	.bss.m_last_pins_state,"aw",%nobits
	.align	2
	.type	m_last_pins_state, %object
	.size	m_last_pins_state, 8
m_last_pins_state:
	.space	8
	.section	.text.gpiote_handler,"ax",%progbits
	.align	1
	.global	gpiote_handler
	.syntax unified
	.thumb
	.thumb_func
	.fpu softvfp
	.type	gpiote_handler, %function
gpiote_handler:
.LFB215:
	.file 5 "C:\\Users\\BertLenovo\\Downloads\\nRF5_2\\components\\libraries\\gpiote\\app_gpiote.c"
	.loc 5 67 1
	@ args = 0, pretend = 0, frame = 32
	@ frame_needed = 0, uses_anonymous_args = 0
	push	{lr}
.LCFI15:
	sub	sp, sp, #36
.LCFI16:
	str	r0, [sp, #4]
	mov	r3, r1
	strb	r3, [sp, #3]
	.loc 5 69 14
	add	r3, sp, #16
	movs	r2, #0
	str	r2, [r3]
	str	r2, [r3, #4]
	.loc 5 70 14
	add	r3, sp, #8
	movs	r2, #0
	str	r2, [r3]
	str	r2, [r3, #4]
	.loc 5 71 5
	add	r3, sp, #16
	mov	r1, r3
	ldr	r0, [sp, #4]
	bl	nrf_bitmask_bit_set
	.loc 5 72 19
	ldr	r1, .L25
	ldr	r0, [sp, #4]
	bl	nrf_bitmask_bit_is_set
	mov	r3, r0
	.loc 5 72 10
	cmp	r3, #0
	ite	ne
	movne	r3, #1
	moveq	r3, #0
	strb	r3, [sp, #27]
	.loc 5 73 5
	ldr	r2, .L25
	movs	r1, #2
	movs	r0, #0
	bl	nrf_gpio_ports_read
	.loc 5 75 12
	movs	r3, #0
	str	r3, [sp, #28]
	.loc 5 75 5
	b	.L21
.L24:
	.loc 5 77 21
	ldr	r3, .L25+4
	ldr	r1, [r3]
	ldr	r2, [sp, #28]
	mov	r3, r2
	lsls	r3, r3, #2
	add	r3, r3, r2
	lsls	r3, r3, #3
	add	r3, r3, r1
	.loc 5 77 24
	ldrb	r3, [r3, #36]	@ zero_extendqisi2
	.loc 5 77 12
	cmp	r3, #0
	beq	.L22
	.loc 5 77 72 discriminator 1
	ldr	r3, .L25+4
	ldr	r1, [r3]
	ldr	r2, [sp, #28]
	mov	r3, r2
	lsls	r3, r3, #2
	add	r3, r3, r2
	lsls	r3, r3, #3
	add	r3, r3, r1
	.loc 5 77 36 discriminator 1
	mov	r1, r3
	ldr	r0, [sp, #4]
	bl	nrf_bitmask_bit_is_set
	mov	r3, r0
	.loc 5 77 33 discriminator 1
	cmp	r3, #0
	beq	.L22
	.loc 5 80 47
	ldr	r3, .L25+4
	ldr	r1, [r3]
	ldr	r2, [sp, #28]
	mov	r3, r2
	lsls	r3, r3, #2
	add	r3, r3, r2
	lsls	r3, r3, #3
	add	r3, r3, r1
	.loc 5 80 50
	adds	r3, r3, #16
	.loc 5 80 11
	mov	r1, r3
	ldr	r0, [sp, #4]
	bl	nrf_bitmask_bit_is_set
	mov	r3, r0
	.loc 5 79 16
	cmp	r3, #0
	beq	.L23
	.loc 5 81 11
	ldrb	r3, [sp, #27]	@ zero_extendqisi2
	cmp	r3, #0
	beq	.L23
	.loc 5 83 25
	ldr	r3, .L25+4
	ldr	r1, [r3]
	ldr	r2, [sp, #28]
	mov	r3, r2
	lsls	r3, r3, #2
	add	r3, r3, r2
	lsls	r3, r3, #3
	add	r3, r3, r1
	.loc 5 83 28
	ldr	r3, [r3, #32]
	.loc 5 83 17
	add	r1, sp, #16
	add	r2, sp, #8
	mov	r0, r2
	blx	r3
.LVL0:
	b	.L22
.L23:
	.loc 5 86 47
	ldr	r3, .L25+4
	ldr	r1, [r3]
	ldr	r2, [sp, #28]
	mov	r3, r2
	lsls	r3, r3, #2
	add	r3, r3, r2
	lsls	r3, r3, #3
	add	r3, r3, r1
	.loc 5 86 50
	adds	r3, r3, #8
	.loc 5 86 11
	mov	r1, r3
	ldr	r0, [sp, #4]
	bl	nrf_bitmask_bit_is_set
	mov	r3, r0
	.loc 5 85 21
	cmp	r3, #0
	beq	.L22
	.loc 5 87 14
	ldrb	r3, [sp, #27]
	eor	r3, r3, #1
	uxtb	r3, r3
	.loc 5 87 11
	cmp	r3, #0
	beq	.L22
	.loc 5 89 25
	ldr	r3, .L25+4
	ldr	r1, [r3]
	ldr	r2, [sp, #28]
	mov	r3, r2
	lsls	r3, r3, #2
	add	r3, r3, r2
	lsls	r3, r3, #3
	add	r3, r3, r1
	.loc 5 89 28
	ldr	r3, [r3, #32]
	.loc 5 89 17
	add	r1, sp, #8
	add	r2, sp, #16
	mov	r0, r2
	blx	r3
.LVL1:
.L22:
	.loc 5 75 36 discriminator 2
	ldr	r3, [sp, #28]
	adds	r3, r3, #1
	str	r3, [sp, #28]
.L21:
	.loc 5 75 19 discriminator 1
	ldr	r3, .L25+8
	ldrb	r3, [r3]	@ zero_extendqisi2
	mov	r2, r3
	.loc 5 75 5 discriminator 1
	ldr	r3, [sp, #28]
	cmp	r3, r2
	blt	.L24
	.loc 5 93 1
	nop
	add	sp, sp, #36
.LCFI17:
	@ sp needed
	ldr	pc, [sp], #4
.L26:
	.align	2
.L25:
	.word	m_last_pins_state
	.word	mp_users
	.word	m_user_count
.LFE215:
	.size	gpiote_handler, .-gpiote_handler
	.section	.text.app_gpiote_init,"ax",%progbits
	.align	1
	.global	app_gpiote_init
	.syntax unified
	.thumb
	.thumb_func
	.fpu softvfp
	.type	app_gpiote_init, %function
app_gpiote_init:
.LFB216:
	.loc 5 96 1
	@ args = 0, pretend = 0, frame = 16
	@ frame_needed = 0, uses_anonymous_args = 0
	push	{lr}
.LCFI18:
	sub	sp, sp, #20
.LCFI19:
	mov	r3, r0
	str	r1, [sp]
	strb	r3, [sp, #7]
	.loc 5 97 14
	movs	r3, #0
	str	r3, [sp, #12]
	.loc 5 99 8
	ldr	r3, [sp]
	cmp	r3, #0
	bne	.L28
	.loc 5 101 16
	movs	r3, #7
	b	.L29
.L28:
	.loc 5 105 10
	ldr	r0, [sp]
	bl	is_word_aligned
	mov	r3, r0
	.loc 5 105 9
	eor	r3, r3, #1
	uxtb	r3, r3
	.loc 5 105 8
	cmp	r3, #0
	beq	.L30
	.loc 5 107 16
	movs	r3, #7
	b	.L29
.L30:
	.loc 5 111 26
	ldr	r2, .L32
	ldr	r3, [sp]
	str	r3, [r2]
	.loc 5 112 26
	ldr	r2, .L32+4
	ldrb	r3, [sp, #7]
	strb	r3, [r2]
	.loc 5 113 26
	ldr	r3, .L32+8
	movs	r2, #0
	strb	r2, [r3]
	.loc 5 114 5
	movs	r2, #8
	movs	r1, #0
	ldr	r0, .L32+12
	bl	memset
	.loc 5 116 5
	ldr	r3, .L32
	ldr	r0, [r3]
	ldr	r3, .L32+4
	ldrb	r3, [r3]	@ zero_extendqisi2
	mov	r2, r3
	mov	r3, r2
	lsls	r3, r3, #2
	add	r3, r3, r2
	lsls	r3, r3, #3
	mov	r2, r3
	movs	r1, #0
	bl	memset
	.loc 5 118 9
	bl	nrfx_gpiote_is_init
	mov	r3, r0
	.loc 5 118 33
	eor	r3, r3, #1
	uxtb	r3, r3
	.loc 5 118 8
	cmp	r3, #0
	beq	.L31
	.loc 5 120 20
	bl	nrfx_gpiote_init
	str	r0, [sp, #12]
.L31:
	.loc 5 123 12
	ldr	r3, [sp, #12]
.L29:
	.loc 5 124 1
	mov	r0, r3
	add	sp, sp, #20
.LCFI20:
	@ sp needed
	ldr	pc, [sp], #4
.L33:
	.align	2
.L32:
	.word	mp_users
	.word	m_user_array_size
	.word	m_user_count
	.word	m_pins
.LFE216:
	.size	app_gpiote_init, .-app_gpiote_init
	.section	.text.app_gpiote_user_register,"ax",%progbits
	.align	1
	.global	app_gpiote_user_register
	.syntax unified
	.thumb
	.thumb_func
	.fpu softvfp
	.type	app_gpiote_user_register, %function
app_gpiote_user_register:
.LFB217:
	.loc 5 130 1
	@ args = 0, pretend = 0, frame = 48
	@ frame_needed = 0, uses_anonymous_args = 0
	push	{lr}
.LCFI21:
	sub	sp, sp, #52
.LCFI22:
	str	r0, [sp, #12]
	str	r1, [sp, #8]
	str	r2, [sp, #4]
	str	r3, [sp]
	.loc 5 135 5
	ldr	r3, .L43
	ldr	r3, [r3]
	cmp	r3, #0
	bne	.L35
	.loc 5 135 5 is_stmt 0 discriminator 1
	movs	r3, #8
	b	.L42
.L35:
	.loc 5 137 22 is_stmt 1
	ldr	r3, .L43+4
	ldrb	r2, [r3]	@ zero_extendqisi2
	ldr	r3, .L43+8
	ldrb	r3, [r3]	@ zero_extendqisi2
	.loc 5 137 8
	cmp	r2, r3
	bcc	.L37
	.loc 5 139 16
	movs	r3, #4
	b	.L42
.L37:
	.loc 5 142 5
	add	r2, sp, #24
	movs	r3, #8
	ldr	r1, [sp, #4]
	ldr	r0, [sp, #8]
	bl	nrf_bitmask_masks_or
	.loc 5 145 13
	ldr	r3, .L43
	ldr	r2, [r3]
	ldr	r3, .L43+4
	ldrb	r3, [r3]	@ zero_extendqisi2
	mov	r1, r3
	mov	r3, r1
	lsls	r3, r3, #2
	add	r3, r3, r1
	lsls	r3, r3, #3
	add	r3, r3, r2
	.loc 5 145 42
	movs	r2, #0
	strb	r2, [r3, #36]
	.loc 5 146 13
	ldr	r3, .L43
	ldr	r2, [r3]
	ldr	r3, .L43+4
	ldrb	r3, [r3]	@ zero_extendqisi2
	mov	r1, r3
	mov	r3, r1
	lsls	r3, r3, #2
	add	r3, r3, r1
	lsls	r3, r3, #3
	add	r3, r3, r2
	.loc 5 146 42
	ldr	r2, [sp]
	str	r2, [r3, #32]
	.loc 5 148 20
	ldr	r3, .L43
	ldr	r2, [r3]
	ldr	r3, .L43+4
	ldrb	r3, [r3]	@ zero_extendqisi2
	mov	r1, r3
	mov	r3, r1
	lsls	r3, r3, #2
	add	r3, r3, r1
	lsls	r3, r3, #3
	add	r3, r3, r2
	.loc 5 148 34
	mov	r0, r3
	.loc 5 148 5
	add	r3, sp, #24
	movs	r2, #8
	mov	r1, r3
	bl	memcpy
	.loc 5 151 20
	ldr	r3, .L43
	ldr	r2, [r3]
	ldr	r3, .L43+4
	ldrb	r3, [r3]	@ zero_extendqisi2
	mov	r1, r3
	mov	r3, r1
	lsls	r3, r3, #2
	add	r3, r3, r1
	lsls	r3, r3, #3
	add	r3, r3, r2
	.loc 5 151 34
	adds	r3, r3, #8
	.loc 5 151 5
	movs	r2, #8
	ldr	r1, [sp, #8]
	mov	r0, r3
	bl	memcpy
	.loc 5 154 20
	ldr	r3, .L43
	ldr	r2, [r3]
	ldr	r3, .L43+4
	ldrb	r3, [r3]	@ zero_extendqisi2
	mov	r1, r3
	mov	r3, r1
	lsls	r3, r3, #2
	add	r3, r3, r1
	lsls	r3, r3, #3
	add	r3, r3, r2
	.loc 5 154 34
	adds	r3, r3, #16
	.loc 5 154 5
	movs	r2, #8
	ldr	r1, [sp, #4]
	mov	r0, r3
	bl	memcpy
	.loc 5 159 38
	add	r3, sp, #20
	movs	r1, #0
	mov	r2, r1	@ movhi
	strh	r2, [r3]	@ movhi
	mov	r2, r1
	strb	r2, [r3, #2]
	movs	r3, #3
	strb	r3, [sp, #20]
	.loc 5 161 14
	movs	r3, #48
	str	r3, [sp, #40]
	.loc 5 162 12
	movs	r3, #0
	str	r3, [sp, #44]
	.loc 5 162 5
	b	.L38
.L41:
	.loc 5 164 13
	add	r3, sp, #24
	mov	r1, r3
	ldr	r0, [sp, #44]
	bl	nrf_bitmask_bit_is_set
	mov	r3, r0
	.loc 5 164 12
	cmp	r3, #0
	beq	.L39
	.loc 5 165 13 discriminator 1
	ldr	r1, .L43+12
	ldr	r0, [sp, #44]
	bl	nrf_bitmask_bit_is_set
	mov	r3, r0
	.loc 5 164 54 discriminator 1
	cmp	r3, #0
	bne	.L39
.LBB2:
	.loc 5 167 32
	add	r3, sp, #20
	ldr	r2, .L43+16
	mov	r1, r3
	ldr	r0, [sp, #44]
	bl	nrfx_gpiote_in_init
	str	r0, [sp, #36]
.LBB3:
	.loc 5 168 13
	ldr	r3, [sp, #36]
	str	r3, [sp, #32]
	ldr	r3, [sp, #32]
	cmp	r3, #0
	beq	.L40
	.loc 5 168 13 is_stmt 0 discriminator 1
	ldr	r3, [sp, #32]
	b	.L42
.L40:
.LBE3:
	.loc 5 169 13 is_stmt 1
	ldr	r1, .L43+12
	ldr	r0, [sp, #44]
	bl	nrf_bitmask_bit_set
.L39:
.LBE2:
	.loc 5 162 35 discriminator 2
	ldr	r3, [sp, #44]
	adds	r3, r3, #1
	str	r3, [sp, #44]
.L38:
	.loc 5 162 5 discriminator 1
	ldr	r2, [sp, #44]
	ldr	r3, [sp, #40]
	cmp	r2, r3
	bcc	.L41
	.loc 5 174 30
	ldr	r3, .L43+4
	ldrb	r3, [r3]	@ zero_extendqisi2
	adds	r2, r3, #1
	uxtb	r1, r2
	ldr	r2, .L43+4
	strb	r1, [r2]
	.loc 5 174 16
	ldr	r2, [sp, #12]
	strb	r3, [r2]
	.loc 5 175 12
	movs	r3, #0
.L42:
	.loc 5 176 1 discriminator 1
	mov	r0, r3
	add	sp, sp, #52
.LCFI23:
	@ sp needed
	ldr	pc, [sp], #4
.L44:
	.align	2
.L43:
	.word	mp_users
	.word	m_user_count
	.word	m_user_array_size
	.word	m_pins
	.word	gpiote_handler
.LFE217:
	.size	app_gpiote_user_register, .-app_gpiote_user_register
	.section .rodata
	.align	2
.LC1:
	.byte	3
	.byte	0
	.byte	4
	.section	.text.app_gpiote_user_register_ex,"ax",%progbits
	.align	1
	.global	app_gpiote_user_register_ex
	.syntax unified
	.thumb
	.thumb_func
	.fpu softvfp
	.type	app_gpiote_user_register_ex, %function
app_gpiote_user_register_ex:
.LFB218:
	.loc 5 182 1
	@ args = 0, pretend = 0, frame = 40
	@ frame_needed = 0, uses_anonymous_args = 0
	push	{lr}
.LCFI24:
	sub	sp, sp, #44
.LCFI25:
	str	r0, [sp, #12]
	str	r1, [sp, #8]
	str	r2, [sp, #4]
	str	r3, [sp]
	.loc 5 186 5
	ldr	r3, .L57
	ldr	r3, [r3]
	cmp	r3, #0
	bne	.L46
	.loc 5 186 5 is_stmt 0 discriminator 1
	movs	r3, #8
	b	.L47
.L46:
	.loc 5 187 22 is_stmt 1
	ldr	r3, .L57+4
	ldrb	r2, [r3]	@ zero_extendqisi2
	ldr	r3, .L57+8
	ldrb	r3, [r3]	@ zero_extendqisi2
	.loc 5 187 8
	cmp	r2, r3
	bcc	.L48
	.loc 5 189 16
	movs	r3, #4
	b	.L47
.L48:
	.loc 5 192 30
	ldr	r3, .L57
	ldr	r2, [r3]
	.loc 5 192 39
	ldr	r3, .L57+4
	ldrb	r3, [r3]	@ zero_extendqisi2
	mov	r1, r3
	mov	r3, r1
	lsls	r3, r3, #2
	add	r3, r3, r1
	lsls	r3, r3, #3
	.loc 5 192 21
	add	r3, r3, r2
	str	r3, [sp, #36]
	.loc 5 194 21
	ldr	r3, [sp, #36]
	movs	r2, #0
	strb	r2, [r3, #36]
	.loc 5 195 5
	movs	r2, #40
	movs	r1, #0
	ldr	r0, [sp, #36]
	bl	memset
	.loc 5 196 13
	ldr	r3, .L57
	ldr	r2, [r3]
	ldr	r3, .L57+4
	ldrb	r3, [r3]	@ zero_extendqisi2
	mov	r1, r3
	mov	r3, r1
	lsls	r3, r3, #2
	add	r3, r3, r1
	lsls	r3, r3, #3
	add	r3, r3, r2
	.loc 5 196 42
	ldr	r2, [sp]
	str	r2, [r3, #32]
	.loc 5 198 5
	b	.L49
.L56:
.LBB4:
	.loc 5 200 65
	ldr	r3, [sp, #8]
	ldrb	r3, [r3]
	ubfx	r3, r3, #0, #6
	uxtb	r3, r3
	.loc 5 200 27
	str	r3, [sp, #32]
	.loc 5 201 42
	ldr	r2, .L57+12
	add	r3, sp, #20
	ldr	r2, [r2]
	mov	r1, r2	@ movhi
	strh	r1, [r3]	@ movhi
	adds	r3, r3, #2
	lsrs	r2, r2, #16
	strb	r2, [r3]
	.loc 5 202 14
	ldr	r1, .L57+16
	ldr	r0, [sp, #32]
	bl	nrf_bitmask_bit_is_set
	mov	r3, r0
	.loc 5 202 12
	cmp	r3, #0
	bne	.L50
.LBB5:
	.loc 5 204 32
	add	r3, sp, #20
	ldr	r2, .L57+20
	mov	r1, r3
	ldr	r0, [sp, #32]
	bl	nrfx_gpiote_in_init
	str	r0, [sp, #28]
.LBB6:
	.loc 5 205 13
	ldr	r3, [sp, #28]
	str	r3, [sp, #24]
	ldr	r3, [sp, #24]
	cmp	r3, #0
	beq	.L51
	.loc 5 205 13 is_stmt 0 discriminator 1
	ldr	r3, [sp, #24]
	b	.L47
.L51:
.LBE6:
	.loc 5 206 13 is_stmt 1
	ldr	r1, .L57+16
	ldr	r0, [sp, #32]
	bl	nrf_bitmask_bit_set
.L50:
.LBE5:
	.loc 5 210 35
	ldr	r3, [sp, #8]
	ldrb	r3, [r3]	@ zero_extendqisi2
	bic	r3, r3, #63
	uxtb	r3, r3
	.loc 5 210 12
	cmp	r3, #64
	beq	.L52
	.loc 5 211 35 discriminator 1
	ldr	r3, [sp, #8]
	ldrb	r3, [r3]	@ zero_extendqisi2
	bic	r3, r3, #63
	uxtb	r3, r3
	.loc 5 210 66 discriminator 1
	cmp	r3, #192
	bne	.L53
.L52:
	.loc 5 213 44
	ldr	r3, [sp, #36]
	adds	r3, r3, #8
	.loc 5 213 13
	mov	r1, r3
	ldr	r0, [sp, #32]
	bl	nrf_bitmask_bit_set
.L53:
	.loc 5 215 35
	ldr	r3, [sp, #8]
	ldrb	r3, [r3]	@ zero_extendqisi2
	bic	r3, r3, #63
	uxtb	r3, r3
	.loc 5 215 12
	cmp	r3, #128
	beq	.L54
	.loc 5 216 35 discriminator 1
	ldr	r3, [sp, #8]
	ldrb	r3, [r3]	@ zero_extendqisi2
	bic	r3, r3, #63
	uxtb	r3, r3
	.loc 5 215 66 discriminator 1
	cmp	r3, #192
	bne	.L55
.L54:
	.loc 5 218 44
	ldr	r3, [sp, #36]
	adds	r3, r3, #16
	.loc 5 218 13
	mov	r1, r3
	ldr	r0, [sp, #32]
	bl	nrf_bitmask_bit_set
.L55:
.LBE4:
	.loc 5 198 28
	ldr	r3, [sp, #4]
	subs	r3, r3, #1
	str	r3, [sp, #4]
	.loc 5 198 41
	ldr	r3, [sp, #8]
	adds	r3, r3, #1
	str	r3, [sp, #8]
.L49:
	.loc 5 198 5 discriminator 1
	ldr	r3, [sp, #4]
	cmp	r3, #0
	bne	.L56
	.loc 5 224 15
	ldr	r3, [sp, #36]
	add	r0, r3, #8
	.loc 5 225 15
	ldr	r3, [sp, #36]
	add	r1, r3, #16
	.loc 5 226 15
	ldr	r2, [sp, #36]
	.loc 5 223 5
	movs	r3, #8
	bl	nrf_bitmask_masks_or
	.loc 5 229 30
	ldr	r3, .L57+4
	ldrb	r3, [r3]	@ zero_extendqisi2
	adds	r2, r3, #1
	uxtb	r1, r2
	ldr	r2, .L57+4
	strb	r1, [r2]
	.loc 5 229 16
	ldr	r2, [sp, #12]
	strb	r3, [r2]
	.loc 5 231 12
	movs	r3, #0
.L47:
	.loc 5 232 1
	mov	r0, r3
	add	sp, sp, #44
.LCFI26:
	@ sp needed
	ldr	pc, [sp], #4
.L58:
	.align	2
.L57:
	.word	mp_users
	.word	m_user_count
	.word	m_user_array_size
	.word	.LC1
	.word	m_pins
	.word	gpiote_handler
.LFE218:
	.size	app_gpiote_user_register_ex, .-app_gpiote_user_register_ex
	.section	.text.error_check,"ax",%progbits
	.align	1
	.syntax unified
	.thumb
	.thumb_func
	.fpu softvfp
	.type	error_check, %function
error_check:
.LFB219:
	.loc 5 235 1
	@ args = 0, pretend = 0, frame = 8
	@ frame_needed = 0, uses_anonymous_args = 0
	@ link register save eliminated.
	sub	sp, sp, #8
.LCFI27:
	mov	r3, r0
	strb	r3, [sp, #7]
	.loc 5 237 5
	ldr	r3, .L63
	ldr	r3, [r3]
	cmp	r3, #0
	bne	.L60
	.loc 5 237 5 is_stmt 0 discriminator 1
	movs	r3, #8
	b	.L61
.L60:
	.loc 5 239 17 is_stmt 1
	ldr	r3, .L63+4
	ldrb	r3, [r3]	@ zero_extendqisi2
	.loc 5 239 8
	ldrb	r2, [sp, #7]	@ zero_extendqisi2
	cmp	r2, r3
	bcc	.L62
	.loc 5 241 16
	movs	r3, #7
	b	.L61
.L62:
	.loc 5 243 12
	movs	r3, #0
.L61:
	.loc 5 244 1
	mov	r0, r3
	add	sp, sp, #8
.LCFI28:
	@ sp needed
	bx	lr
.L64:
	.align	2
.L63:
	.word	mp_users
	.word	m_user_count
.LFE219:
	.size	error_check, .-error_check
	.section	.text.pin_event_enable,"ax",%progbits
	.align	1
	.syntax unified
	.thumb
	.thumb_func
	.fpu softvfp
	.type	pin_event_enable, %function
pin_event_enable:
.LFB220:
	.loc 5 253 1
	@ args = 0, pretend = 0, frame = 16
	@ frame_needed = 0, uses_anonymous_args = 0
	push	{lr}
.LCFI29:
	sub	sp, sp, #20
.LCFI30:
	str	r0, [sp, #4]
	mov	r3, r1
	strb	r3, [sp, #3]
	.loc 5 255 10
	movs	r3, #0
	strb	r3, [sp, #11]
	.loc 5 257 12
	movs	r3, #0
	str	r3, [sp, #12]
	.loc 5 257 5
	b	.L66
.L69:
	.loc 5 259 21
	ldr	r3, .L73
	ldr	r1, [r3]
	ldr	r2, [sp, #12]
	mov	r3, r2
	lsls	r3, r3, #2
	add	r3, r3, r2
	lsls	r3, r3, #3
	add	r3, r3, r1
	.loc 5 259 24
	ldrb	r3, [r3, #36]	@ zero_extendqisi2
	.loc 5 259 12
	cmp	r3, #0
	beq	.L67
	.loc 5 260 53 discriminator 1
	ldr	r3, .L73
	ldr	r1, [r3]
	ldr	r2, [sp, #12]
	mov	r3, r2
	lsls	r3, r3, #2
	add	r3, r3, r2
	lsls	r3, r3, #3
	add	r3, r3, r1
	.loc 5 260 17 discriminator 1
	mov	r1, r3
	ldr	r0, [sp, #4]
	bl	nrf_bitmask_bit_is_set
	mov	r3, r0
	.loc 5 259 33 discriminator 1
	cmp	r3, #0
	beq	.L67
	.loc 5 262 21
	movs	r3, #1
	strb	r3, [sp, #11]
	.loc 5 263 13
	b	.L68
.L67:
	.loc 5 257 36 discriminator 2
	ldr	r3, [sp, #12]
	adds	r3, r3, #1
	str	r3, [sp, #12]
.L66:
	.loc 5 257 19 discriminator 1
	ldr	r3, .L73+4
	ldrb	r3, [r3]	@ zero_extendqisi2
	mov	r2, r3
	.loc 5 257 5 discriminator 1
	ldr	r3, [sp, #12]
	cmp	r3, r2
	bcc	.L69
.L68:
	.loc 5 266 9
	ldrb	r3, [sp, #11]
	eor	r3, r3, #1
	uxtb	r3, r3
	.loc 5 266 8
	cmp	r3, #0
	beq	.L72
	.loc 5 268 12
	ldrb	r3, [sp, #3]	@ zero_extendqisi2
	cmp	r3, #0
	beq	.L71
	.loc 5 270 13
	ldr	r2, .L73+8
	movs	r1, #2
	movs	r0, #0
	bl	nrf_gpio_ports_read
	.loc 5 271 13
	movs	r1, #1
	ldr	r0, [sp, #4]
	bl	nrfx_gpiote_in_event_enable
	.loc 5 278 1
	b	.L72
.L71:
	.loc 5 275 13
	ldr	r0, [sp, #4]
	bl	nrfx_gpiote_in_event_disable
.L72:
	.loc 5 278 1
	nop
	add	sp, sp, #20
.LCFI31:
	@ sp needed
	ldr	pc, [sp], #4
.L74:
	.align	2
.L73:
	.word	mp_users
	.word	m_user_count
	.word	m_last_pins_state
.LFE220:
	.size	pin_event_enable, .-pin_event_enable
	.section	.text.user_enable,"ax",%progbits
	.align	1
	.syntax unified
	.thumb
	.thumb_func
	.fpu softvfp
	.type	user_enable, %function
user_enable:
.LFB221:
	.loc 5 290 1
	@ args = 0, pretend = 0, frame = 16
	@ frame_needed = 0, uses_anonymous_args = 0
	push	{lr}
.LCFI32:
	sub	sp, sp, #20
.LCFI33:
	mov	r3, r0
	mov	r2, r1
	strb	r3, [sp, #7]
	mov	r3, r2
	strb	r3, [sp, #6]
	.loc 5 291 25
	ldrb	r3, [sp, #7]	@ zero_extendqisi2
	mov	r0, r3
	bl	error_check
	str	r0, [sp, #8]
	.loc 5 293 8
	ldr	r3, [sp, #8]
	cmp	r3, #0
	bne	.L76
.LBB7:
	.loc 5 296 16
	movs	r3, #0
	str	r3, [sp, #12]
	.loc 5 296 9
	b	.L77
.L79:
	.loc 5 298 51
	ldr	r3, .L81
	ldr	r1, [r3]
	ldrb	r2, [sp, #7]	@ zero_extendqisi2
	mov	r3, r2
	lsls	r3, r3, #2
	add	r3, r3, r2
	lsls	r3, r3, #3
	add	r3, r3, r1
	.loc 5 298 17
	mov	r1, r3
	ldr	r0, [sp, #12]
	bl	nrf_bitmask_bit_is_set
	mov	r3, r0
	.loc 5 298 16
	cmp	r3, #0
	beq	.L78
	.loc 5 300 17
	ldrb	r3, [sp, #6]	@ zero_extendqisi2
	mov	r1, r3
	ldr	r0, [sp, #12]
	bl	pin_event_enable
.L78:
	.loc 5 296 42 discriminator 2
	ldr	r3, [sp, #12]
	adds	r3, r3, #1
	str	r3, [sp, #12]
.L77:
	.loc 5 296 9 discriminator 1
	ldr	r3, [sp, #12]
	cmp	r3, #47
	bls	.L79
.L76:
.LBE7:
	.loc 5 304 12
	ldr	r3, [sp, #8]
	.loc 5 305 1
	mov	r0, r3
	add	sp, sp, #20
.LCFI34:
	@ sp needed
	ldr	pc, [sp], #4
.L82:
	.align	2
.L81:
	.word	mp_users
.LFE221:
	.size	user_enable, .-user_enable
	.section	.text.app_gpiote_user_enable,"ax",%progbits
	.align	1
	.global	app_gpiote_user_enable
	.syntax unified
	.thumb
	.thumb_func
	.fpu softvfp
	.type	app_gpiote_user_enable, %function
app_gpiote_user_enable:
.LFB222:
	.loc 5 308 1
	@ args = 0, pretend = 0, frame = 16
	@ frame_needed = 0, uses_anonymous_args = 0
	push	{lr}
.LCFI35:
	sub	sp, sp, #20
.LCFI36:
	mov	r3, r0
	strb	r3, [sp, #7]
	.loc 5 309 14
	movs	r3, #0
	str	r3, [sp, #12]
	.loc 5 311 17
	ldr	r3, .L87
	ldr	r1, [r3]
	ldrb	r2, [sp, #7]	@ zero_extendqisi2
	mov	r3, r2
	lsls	r3, r3, #2
	add	r3, r3, r2
	lsls	r3, r3, #3
	add	r3, r3, r1
	.loc 5 311 26
	ldrb	r3, [r3, #36]	@ zero_extendqisi2
	.loc 5 311 35
	eor	r3, r3, #1
	uxtb	r3, r3
	.loc 5 311 8
	cmp	r3, #0
	beq	.L84
	.loc 5 313 20
	ldrb	r3, [sp, #7]	@ zero_extendqisi2
	movs	r1, #1
	mov	r0, r3
	bl	user_enable
	str	r0, [sp, #12]
.LBB8:
	.loc 5 314 9
	ldr	r3, [sp, #12]
	str	r3, [sp, #8]
	ldr	r3, [sp, #8]
	cmp	r3, #0
	beq	.L85
	.loc 5 314 9 is_stmt 0 discriminator 1
	ldr	r3, [sp, #8]
	b	.L86
.L85:
.LBE8:
	.loc 5 316 17 is_stmt 1
	ldr	r3, .L87
	ldr	r1, [r3]
	ldrb	r2, [sp, #7]	@ zero_extendqisi2
	mov	r3, r2
	lsls	r3, r3, #2
	add	r3, r3, r2
	lsls	r3, r3, #3
	add	r3, r3, r1
	.loc 5 316 35
	movs	r2, #1
	strb	r2, [r3, #36]
	.loc 5 317 16
	ldr	r3, [sp, #12]
	b	.L86
.L84:
	.loc 5 321 16
	ldr	r3, [sp, #12]
.L86:
	.loc 5 323 1
	mov	r0, r3
	add	sp, sp, #20
.LCFI37:
	@ sp needed
	ldr	pc, [sp], #4
.L88:
	.align	2
.L87:
	.word	mp_users
.LFE222:
	.size	app_gpiote_user_enable, .-app_gpiote_user_enable
	.section	.text.app_gpiote_user_disable,"ax",%progbits
	.align	1
	.global	app_gpiote_user_disable
	.syntax unified
	.thumb
	.thumb_func
	.fpu softvfp
	.type	app_gpiote_user_disable, %function
app_gpiote_user_disable:
.LFB223:
	.loc 5 326 1
	@ args = 0, pretend = 0, frame = 16
	@ frame_needed = 0, uses_anonymous_args = 0
	push	{lr}
.LCFI38:
	sub	sp, sp, #20
.LCFI39:
	mov	r3, r0
	strb	r3, [sp, #7]
	.loc 5 327 14
	movs	r3, #0
	str	r3, [sp, #12]
	.loc 5 329 17
	ldr	r3, .L92
	ldr	r1, [r3]
	ldrb	r2, [sp, #7]	@ zero_extendqisi2
	mov	r3, r2
	lsls	r3, r3, #2
	add	r3, r3, r2
	lsls	r3, r3, #3
	add	r3, r3, r1
	.loc 5 329 26
	ldrb	r3, [r3, #36]	@ zero_extendqisi2
	.loc 5 329 8
	cmp	r3, #0
	beq	.L90
	.loc 5 331 17
	ldr	r3, .L92
	ldr	r1, [r3]
	ldrb	r2, [sp, #7]	@ zero_extendqisi2
	mov	r3, r2
	lsls	r3, r3, #2
	add	r3, r3, r2
	lsls	r3, r3, #3
	add	r3, r3, r1
	.loc 5 331 35
	movs	r2, #0
	strb	r2, [r3, #36]
	.loc 5 332 20
	ldrb	r3, [sp, #7]	@ zero_extendqisi2
	movs	r1, #0
	mov	r0, r3
	bl	user_enable
	str	r0, [sp, #12]
.L90:
	.loc 5 335 12
	ldr	r3, [sp, #12]
	.loc 5 336 1
	mov	r0, r3
	add	sp, sp, #20
.LCFI40:
	@ sp needed
	ldr	pc, [sp], #4
.L93:
	.align	2
.L92:
	.word	mp_users
.LFE223:
	.size	app_gpiote_user_disable, .-app_gpiote_user_disable
	.section	.text.app_gpiote_pins_state_get,"ax",%progbits
	.align	1
	.global	app_gpiote_pins_state_get
	.syntax unified
	.thumb
	.thumb_func
	.fpu softvfp
	.type	app_gpiote_pins_state_get, %function
app_gpiote_pins_state_get:
.LFB224:
	.loc 5 339 1
	@ args = 0, pretend = 0, frame = 16
	@ frame_needed = 0, uses_anonymous_args = 0
	push	{lr}
.LCFI41:
	sub	sp, sp, #20
.LCFI42:
	mov	r3, r0
	str	r1, [sp]
	strb	r3, [sp, #7]
	.loc 5 341 25
	ldrb	r3, [sp, #7]	@ zero_extendqisi2
	mov	r0, r3
	bl	error_check
	str	r0, [sp, #12]
	.loc 5 343 8
	ldr	r3, [sp, #12]
	cmp	r3, #0
	bne	.L95
	.loc 5 345 19
	ldr	r3, .L97
	ldr	r1, [r3]
	.loc 5 345 28
	ldrb	r2, [sp, #7]	@ zero_extendqisi2
	mov	r3, r2
	lsls	r3, r3, #2
	add	r3, r3, r2
	lsls	r3, r3, #3
	.loc 5 345 17
	add	r3, r3, r1
	str	r3, [sp, #8]
	.loc 5 347 9
	ldr	r2, [sp]
	movs	r1, #2
	movs	r0, #0
	bl	nrf_gpio_ports_read
	.loc 5 348 45
	ldr	r1, [sp, #8]
	.loc 5 348 9
	movs	r3, #8
	ldr	r2, [sp]
	ldr	r0, [sp]
	bl	nrf_bitmask_masks_and
.L95:
	.loc 5 350 12
	ldr	r3, [sp, #12]
	.loc 5 351 1
	mov	r0, r3
	add	sp, sp, #20
.LCFI43:
	@ sp needed
	ldr	pc, [sp], #4
.L98:
	.align	2
.L97:
	.word	mp_users
.LFE224:
	.size	app_gpiote_pins_state_get, .-app_gpiote_pins_state_get
	.section	.debug_frame,"",%progbits
.Lframe0:
	.4byte	.LECIE0-.LSCIE0
.LSCIE0:
	.4byte	0xffffffff
	.byte	0x3
	.ascii	"\000"
	.uleb128 0x1
	.sleb128 -4
	.uleb128 0xe
	.byte	0xc
	.uleb128 0xd
	.uleb128 0
	.align	2
.LECIE0:
.LSFDE0:
	.4byte	.LEFDE0-.LASFDE0
.LASFDE0:
	.4byte	.Lframe0
	.4byte	.LFB124
	.4byte	.LFE124-.LFB124
	.align	2
.LEFDE0:
.LSFDE2:
	.4byte	.LEFDE2-.LASFDE2
.LASFDE2:
	.4byte	.Lframe0
	.4byte	.LFB141
	.4byte	.LFE141-.LFB141
	.byte	0x4
	.4byte	.LCFI0-.LFB141
	.byte	0xe
	.uleb128 0x8
	.byte	0x4
	.4byte	.LCFI1-.LCFI0
	.byte	0xe
	.uleb128 0
	.align	2
.LEFDE2:
.LSFDE4:
	.4byte	.LEFDE4-.LASFDE4
.LASFDE4:
	.4byte	.Lframe0
	.4byte	.LFB201
	.4byte	.LFE201-.LFB201
	.byte	0x4
	.4byte	.LCFI2-.LFB201
	.byte	0xe
	.uleb128 0x8
	.byte	0x4
	.4byte	.LCFI3-.LCFI2
	.byte	0xe
	.uleb128 0
	.align	2
.LEFDE4:
.LSFDE6:
	.4byte	.LEFDE6-.LASFDE6
.LASFDE6:
	.4byte	.Lframe0
	.4byte	.LFB206
	.4byte	.LFE206-.LFB206
	.byte	0x4
	.4byte	.LCFI4-.LFB206
	.byte	0xe
	.uleb128 0x4
	.byte	0x8e
	.uleb128 0x1
	.byte	0x4
	.4byte	.LCFI5-.LCFI4
	.byte	0xe
	.uleb128 0x28
	.byte	0x4
	.4byte	.LCFI6-.LCFI5
	.byte	0xe
	.uleb128 0x4
	.align	2
.LEFDE6:
.LSFDE8:
	.4byte	.LEFDE8-.LASFDE8
.LASFDE8:
	.4byte	.Lframe0
	.4byte	.LFB210
	.4byte	.LFE210-.LFB210
	.byte	0x4
	.4byte	.LCFI7-.LFB210
	.byte	0xe
	.uleb128 0x10
	.byte	0x4
	.4byte	.LCFI8-.LCFI7
	.byte	0xe
	.uleb128 0
	.align	2
.LEFDE8:
.LSFDE10:
	.4byte	.LEFDE10-.LASFDE10
.LASFDE10:
	.4byte	.Lframe0
	.4byte	.LFB211
	.4byte	.LFE211-.LFB211
	.byte	0x4
	.4byte	.LCFI9-.LFB211
	.byte	0xe
	.uleb128 0x10
	.byte	0x4
	.4byte	.LCFI10-.LCFI9
	.byte	0xe
	.uleb128 0
	.align	2
.LEFDE10:
.LSFDE12:
	.4byte	.LEFDE12-.LASFDE12
.LASFDE12:
	.4byte	.Lframe0
	.4byte	.LFB213
	.4byte	.LFE213-.LFB213
	.byte	0x4
	.4byte	.LCFI11-.LFB213
	.byte	0xe
	.uleb128 0x20
	.byte	0x4
	.4byte	.LCFI12-.LCFI11
	.byte	0xe
	.uleb128 0
	.align	2
.LEFDE12:
.LSFDE14:
	.4byte	.LEFDE14-.LASFDE14
.LASFDE14:
	.4byte	.Lframe0
	.4byte	.LFB214
	.4byte	.LFE214-.LFB214
	.byte	0x4
	.4byte	.LCFI13-.LFB214
	.byte	0xe
	.uleb128 0x20
	.byte	0x4
	.4byte	.LCFI14-.LCFI13
	.byte	0xe
	.uleb128 0
	.align	2
.LEFDE14:
.LSFDE16:
	.4byte	.LEFDE16-.LASFDE16
.LASFDE16:
	.4byte	.Lframe0
	.4byte	.LFB215
	.4byte	.LFE215-.LFB215
	.byte	0x4
	.4byte	.LCFI15-.LFB215
	.byte	0xe
	.uleb128 0x4
	.byte	0x8e
	.uleb128 0x1
	.byte	0x4
	.4byte	.LCFI16-.LCFI15
	.byte	0xe
	.uleb128 0x28
	.byte	0x4
	.4byte	.LCFI17-.LCFI16
	.byte	0xe
	.uleb128 0x4
	.align	2
.LEFDE16:
.LSFDE18:
	.4byte	.LEFDE18-.LASFDE18
.LASFDE18:
	.4byte	.Lframe0
	.4byte	.LFB216
	.4byte	.LFE216-.LFB216
	.byte	0x4
	.4byte	.LCFI18-.LFB216
	.byte	0xe
	.uleb128 0x4
	.byte	0x8e
	.uleb128 0x1
	.byte	0x4
	.4byte	.LCFI19-.LCFI18
	.byte	0xe
	.uleb128 0x18
	.byte	0x4
	.4byte	.LCFI20-.LCFI19
	.byte	0xe
	.uleb128 0x4
	.align	2
.LEFDE18:
.LSFDE20:
	.4byte	.LEFDE20-.LASFDE20
.LASFDE20:
	.4byte	.Lframe0
	.4byte	.LFB217
	.4byte	.LFE217-.LFB217
	.byte	0x4
	.4byte	.LCFI21-.LFB217
	.byte	0xe
	.uleb128 0x4
	.byte	0x8e
	.uleb128 0x1
	.byte	0x4
	.4byte	.LCFI22-.LCFI21
	.byte	0xe
	.uleb128 0x38
	.byte	0x4
	.4byte	.LCFI23-.LCFI22
	.byte	0xe
	.uleb128 0x4
	.align	2
.LEFDE20:
.LSFDE22:
	.4byte	.LEFDE22-.LASFDE22
.LASFDE22:
	.4byte	.Lframe0
	.4byte	.LFB218
	.4byte	.LFE218-.LFB218
	.byte	0x4
	.4byte	.LCFI24-.LFB218
	.byte	0xe
	.uleb128 0x4
	.byte	0x8e
	.uleb128 0x1
	.byte	0x4
	.4byte	.LCFI25-.LCFI24
	.byte	0xe
	.uleb128 0x30
	.byte	0x4
	.4byte	.LCFI26-.LCFI25
	.byte	0xe
	.uleb128 0x4
	.align	2
.LEFDE22:
.LSFDE24:
	.4byte	.LEFDE24-.LASFDE24
.LASFDE24:
	.4byte	.Lframe0
	.4byte	.LFB219
	.4byte	.LFE219-.LFB219
	.byte	0x4
	.4byte	.LCFI27-.LFB219
	.byte	0xe
	.uleb128 0x8
	.byte	0x4
	.4byte	.LCFI28-.LCFI27
	.byte	0xe
	.uleb128 0
	.align	2
.LEFDE24:
.LSFDE26:
	.4byte	.LEFDE26-.LASFDE26
.LASFDE26:
	.4byte	.Lframe0
	.4byte	.LFB220
	.4byte	.LFE220-.LFB220
	.byte	0x4
	.4byte	.LCFI29-.LFB220
	.byte	0xe
	.uleb128 0x4
	.byte	0x8e
	.uleb128 0x1
	.byte	0x4
	.4byte	.LCFI30-.LCFI29
	.byte	0xe
	.uleb128 0x18
	.byte	0x4
	.4byte	.LCFI31-.LCFI30
	.byte	0xe
	.uleb128 0x4
	.align	2
.LEFDE26:
.LSFDE28:
	.4byte	.LEFDE28-.LASFDE28
.LASFDE28:
	.4byte	.Lframe0
	.4byte	.LFB221
	.4byte	.LFE221-.LFB221
	.byte	0x4
	.4byte	.LCFI32-.LFB221
	.byte	0xe
	.uleb128 0x4
	.byte	0x8e
	.uleb128 0x1
	.byte	0x4
	.4byte	.LCFI33-.LCFI32
	.byte	0xe
	.uleb128 0x18
	.byte	0x4
	.4byte	.LCFI34-.LCFI33
	.byte	0xe
	.uleb128 0x4
	.align	2
.LEFDE28:
.LSFDE30:
	.4byte	.LEFDE30-.LASFDE30
.LASFDE30:
	.4byte	.Lframe0
	.4byte	.LFB222
	.4byte	.LFE222-.LFB222
	.byte	0x4
	.4byte	.LCFI35-.LFB222
	.byte	0xe
	.uleb128 0x4
	.byte	0x8e
	.uleb128 0x1
	.byte	0x4
	.4byte	.LCFI36-.LCFI35
	.byte	0xe
	.uleb128 0x18
	.byte	0x4
	.4byte	.LCFI37-.LCFI36
	.byte	0xe
	.uleb128 0x4
	.align	2
.LEFDE30:
.LSFDE32:
	.4byte	.LEFDE32-.LASFDE32
.LASFDE32:
	.4byte	.Lframe0
	.4byte	.LFB223
	.4byte	.LFE223-.LFB223
	.byte	0x4
	.4byte	.LCFI38-.LFB223
	.byte	0xe
	.uleb128 0x4
	.byte	0x8e
	.uleb128 0x1
	.byte	0x4
	.4byte	.LCFI39-.LCFI38
	.byte	0xe
	.uleb128 0x18
	.byte	0x4
	.4byte	.LCFI40-.LCFI39
	.byte	0xe
	.uleb128 0x4
	.align	2
.LEFDE32:
.LSFDE34:
	.4byte	.LEFDE34-.LASFDE34
.LASFDE34:
	.4byte	.Lframe0
	.4byte	.LFB224
	.4byte	.LFE224-.LFB224
	.byte	0x4
	.4byte	.LCFI41-.LFB224
	.byte	0xe
	.uleb128 0x4
	.byte	0x8e
	.uleb128 0x1
	.byte	0x4
	.4byte	.LCFI42-.LCFI41
	.byte	0xe
	.uleb128 0x18
	.byte	0x4
	.4byte	.LCFI43-.LCFI42
	.byte	0xe
	.uleb128 0x4
	.align	2
.LEFDE34:
	.text
.Letext0:
	.file 6 "C:/gu/arm_segger_embedded_studio_v420a_win_x64_nordic/include/stdint.h"
	.file 7 "C:/gu/arm_segger_embedded_studio_v420a_win_x64_nordic/include/__crossworks.h"
	.file 8 "C:/gu/arm_segger_embedded_studio_v420a_win_x64_nordic/include/string.h"
	.file 9 "./../../../../../../../components/toolchain/cmsis/include/core_cm4.h"
	.file 10 "./../../../../../../../modules/nrfx/mdk/system_nrf52840.h"
	.file 11 "./../../../../../../../modules/nrfx/mdk/nrf52840.h"
	.file 12 "C:/gu/arm_segger_embedded_studio_v420a_win_x64_nordic/include/stdio.h"
	.file 13 "./../../../../../../../modules/nrfx/hal/nrf_gpiote.h"
	.file 14 "./../../../../../../../modules/nrfx/drivers/include/nrfx_gpiote.h"
	.file 15 "./../../../../../../../integration/nrfx/legacy/nrf_drv_gpiote.h"
	.file 16 "C:\\Users\\BertLenovo\\Downloads\\nRF5_2\\components\\libraries\\gpiote\\app_gpiote.h"