	.cpu cortex-m4
	.eabi_attribute 20, 1
	.eabi_attribute 21, 1
	.eabi_attribute 23, 3
	.eabi_attribute 24, 1
	.eabi_attribute 25, 1
	.eabi_attribute 26, 1
	.eabi_attribute 30, 6
	.eabi_attribute 34, 1
	.eabi_attribute 18, 4
	.file	"app_pwm.c"
	.text
.Ltext0:
	.section	.text.sd_mbr_command,"ax",%progbits
	.align	1
	.syntax unified
	.thumb
	.thumb_func
	.fpu softvfp
	.type	sd_mbr_command, %function
sd_mbr_command:
.LFB124:
	.file 1 "./../../../../../../../components/softdevice/mbr/nrf52840/headers/nrf_mbr.h"
	.loc 1 257 1
	@ Naked Function: prologue and epilogue provided by programmer.
	@ args = 0, pretend = 0, frame = 0
	@ frame_needed = 0, uses_anonymous_args = 0
	.loc 1 257 1
	.syntax unified
@ 257 "./../../../../../../../components/softdevice/mbr/nrf52840/headers/nrf_mbr.h" 1
	svc #24
bx r14
@ 0 "" 2
	.thumb
	.syntax unified
	nop
	mov	r0, r3
.LFE124:
	.size	sd_mbr_command, .-sd_mbr_command
	.section	.text.nrf_timer_event_address_get,"ax",%progbits
	.align	1
	.syntax unified
	.thumb
	.thumb_func
	.fpu softvfp
	.type	nrf_timer_event_address_get, %function
nrf_timer_event_address_get:
.LFB160:
	.file 2 "./../../../../../../../modules/nrfx/hal/nrf_timer.h"
	.loc 2 549 1
	@ args = 0, pretend = 0, frame = 8
	@ frame_needed = 0, uses_anonymous_args = 0
	@ link register save eliminated.
	sub	sp, sp, #8
.LCFI0:
	str	r0, [sp, #4]
	mov	r3, r1
	strh	r3, [sp, #2]	@ movhi
	.loc 2 550 44
	ldrh	r3, [sp, #2]
	.loc 2 550 12
	ldr	r2, [sp, #4]
	add	r3, r3, r2
	.loc 2 551 1
	mov	r0, r3
	add	sp, sp, #8
.LCFI1:
	@ sp needed
	bx	lr
.LFE160:
	.size	nrf_timer_event_address_get, .-nrf_timer_event_address_get
	.section	.text.nrf_timer_frequency_get,"ax",%progbits
	.align	1
	.syntax unified
	.thumb
	.thumb_func
	.fpu softvfp
	.type	nrf_timer_frequency_get, %function
nrf_timer_frequency_get:
.LFB171:
	.loc 2 647 1
	@ args = 0, pretend = 0, frame = 8
	@ frame_needed = 0, uses_anonymous_args = 0
	@ link register save eliminated.
	sub	sp, sp, #8
.LCFI2:
	str	r0, [sp, #4]
	.loc 2 648 41
	ldr	r3, [sp, #4]
	ldr	r3, [r3, #1296]
	.loc 2 648 12
	uxtb	r3, r3
	.loc 2 649 1
	mov	r0, r3
	add	sp, sp, #8
.LCFI3:
	@ sp needed
	bx	lr
.LFE171:
	.size	nrf_timer_frequency_get, .-nrf_timer_frequency_get
	.section	.text.nrf_timer_cc_read,"ax",%progbits
	.align	1
	.syntax unified
	.thumb
	.thumb_func
	.fpu softvfp
	.type	nrf_timer_cc_read, %function
nrf_timer_cc_read:
.LFB173:
	.loc 2 660 1
	@ args = 0, pretend = 0, frame = 8
	@ frame_needed = 0, uses_anonymous_args = 0
	@ link register save eliminated.
	sub	sp, sp, #8
.LCFI4:
	str	r0, [sp, #4]
	mov	r3, r1
	strb	r3, [sp, #3]
	.loc 2 661 12
	ldrb	r2, [sp, #3]	@ zero_extendqisi2
	ldr	r3, [sp, #4]
	add	r2, r2, #336
	ldr	r3, [r3, r2, lsl #2]
	.loc 2 662 1
	mov	r0, r3
	add	sp, sp, #8
.LCFI5:
	@ sp needed
	bx	lr
.LFE173:
	.size	nrf_timer_cc_read, .-nrf_timer_cc_read
	.section	.text.nrf_timer_compare_event_get,"ax",%progbits
	.align	1
	.syntax unified
	.thumb
	.thumb_func
	.fpu softvfp
	.type	nrf_timer_compare_event_get, %function
nrf_timer_compare_event_get:
.LFB175:
	.loc 2 671 1
	@ args = 0, pretend = 0, frame = 8
	@ frame_needed = 0, uses_anonymous_args = 0
	@ link register save eliminated.
	sub	sp, sp, #8
.LCFI6:
	str	r0, [sp, #4]
	.loc 2 672 12
	ldr	r3, [sp, #4]
	uxth	r3, r3
	adds	r3, r3, #80
	uxth	r3, r3
	lsls	r3, r3, #2
	uxth	r3, r3
	.loc 2 674 1
	mov	r0, r3
	add	sp, sp, #8
.LCFI7:
	@ sp needed
	bx	lr
.LFE175:
	.size	nrf_timer_compare_event_get, .-nrf_timer_compare_event_get
	.section	.text.nrf_timer_us_to_ticks,"ax",%progbits
	.align	1
	.syntax unified
	.thumb
	.thumb_func
	.fpu softvfp
	.type	nrf_timer_us_to_ticks, %function
nrf_timer_us_to_ticks:
.LFB177:
	.loc 2 684 1
	@ args = 0, pretend = 0, frame = 24
	@ frame_needed = 0, uses_anonymous_args = 0
	@ link register save eliminated.
	push	{r4, r5, r6}
.LCFI8:
	sub	sp, sp, #28
.LCFI9:
	str	r0, [sp, #4]
	mov	r3, r1
	strb	r3, [sp, #3]
	.loc 2 687 14
	ldrb	r3, [sp, #3]	@ zero_extendqisi2
	str	r3, [sp, #20]
	.loc 2 688 32
	ldr	r3, [sp, #4]
	mov	r1, r3
	mov	r2, #0
	mov	r3, #0
	mov	r4, #0
	lsls	r4, r2, #4
	orr	r4, r4, r1, lsr #28
	lsls	r3, r1, #4
	.loc 2 688 14
	ldr	r2, [sp, #20]
	rsb	r0, r2, #32
	sub	r1, r2, #32
	lsr	r5, r3, r2
	lsl	r0, r4, r0
	orrs	r5, r5, r0
	lsr	r1, r4, r1
	orrs	r5, r5, r1
	lsr	r6, r4, r2
	strd	r5, [sp, #8]
	.loc 2 690 12
	ldr	r3, [sp, #8]
	.loc 2 691 1
	mov	r0, r3
	add	sp, sp, #28
.LCFI10:
	@ sp needed
	pop	{r4, r5, r6}
.LCFI11:
	bx	lr
.LFE177:
	.size	nrf_timer_us_to_ticks, .-nrf_timer_us_to_ticks
	.section	.text.nrfx_timer_compare_event_address_get,"ax",%progbits
	.align	1
	.syntax unified
	.thumb
	.thumb_func
	.fpu softvfp
	.type	nrfx_timer_compare_event_address_get, %function
nrfx_timer_compare_event_address_get:
.LFB182:
	.file 3 "./../../../../../../../modules/nrfx/drivers/include/nrfx_timer.h"
	.loc 3 372 1
	@ args = 0, pretend = 0, frame = 8
	@ frame_needed = 0, uses_anonymous_args = 0
	push	{r4, lr}
.LCFI12:
	sub	sp, sp, #8
.LCFI13:
	str	r0, [sp, #4]
	str	r1, [sp]
	.loc 3 374 22
	ldr	r3, [sp, #4]
	ldr	r4, [r3]
	ldr	r0, [sp]
	bl	nrf_timer_compare_event_get
	mov	r3, r0
	mov	r1, r3
	mov	r0, r4
	bl	nrf_timer_event_address_get
	mov	r3, r0
	.loc 3 376 1
	mov	r0, r3
	add	sp, sp, #8
.LCFI14:
	@ sp needed
	pop	{r4, pc}
.LFE182:
	.size	nrfx_timer_compare_event_address_get, .-nrfx_timer_compare_event_address_get
	.section	.text.nrfx_timer_capture_get,"ax",%progbits
	.align	1
	.syntax unified
	.thumb
	.thumb_func
	.fpu softvfp
	.type	nrfx_timer_capture_get, %function
nrfx_timer_capture_get:
.LFB183:
	.loc 3 380 1
	@ args = 0, pretend = 0, frame = 8
	@ frame_needed = 0, uses_anonymous_args = 0
	push	{lr}
.LCFI15:
	sub	sp, sp, #12
.LCFI16:
	str	r0, [sp, #4]
	mov	r3, r1
	strb	r3, [sp, #3]
	.loc 3 381 12
	ldr	r3, [sp, #4]
	ldr	r3, [r3]
	ldrb	r2, [sp, #3]	@ zero_extendqisi2
	mov	r1, r2
	mov	r0, r3
	bl	nrf_timer_cc_read
	mov	r3, r0
	.loc 3 382 1
	mov	r0, r3
	add	sp, sp, #12
.LCFI17:
	@ sp needed
	ldr	pc, [sp], #4
.LFE183:
	.size	nrfx_timer_capture_get, .-nrfx_timer_capture_get
	.section	.text.nrfx_timer_us_to_ticks,"ax",%progbits
	.align	1
	.syntax unified
	.thumb
	.thumb_func
	.fpu softvfp
	.type	nrfx_timer_us_to_ticks, %function
nrfx_timer_us_to_ticks:
.LFB184:
	.loc 3 386 1
	@ args = 0, pretend = 0, frame = 8
	@ frame_needed = 0, uses_anonymous_args = 0
	push	{lr}
.LCFI18:
	sub	sp, sp, #12
.LCFI19:
	str	r0, [sp, #4]
	str	r1, [sp]
	.loc 3 387 12
	ldr	r3, [sp, #4]
	ldr	r3, [r3]
	mov	r0, r3
	bl	nrf_timer_frequency_get
	mov	r3, r0
	mov	r1, r3
	ldr	r0, [sp]
	bl	nrf_timer_us_to_ticks
	mov	r3, r0
	.loc 3 388 1
	mov	r0, r3
	add	sp, sp, #12
.LCFI20:
	@ sp needed
	ldr	pc, [sp], #4
.LFE184:
	.size	nrfx_timer_us_to_ticks, .-nrfx_timer_us_to_ticks
	.section	.text.nrf_gpio_pin_port_decode,"ax",%progbits
	.align	1
	.syntax unified
	.thumb
	.thumb_func
	.fpu softvfp
	.type	nrf_gpio_pin_port_decode, %function
nrf_gpio_pin_port_decode:
.LFB234:
	.file 4 "./../../../../../../../modules/nrfx/hal/nrf_gpio.h"
	.loc 4 485 1
	@ args = 0, pretend = 0, frame = 8
	@ frame_needed = 0, uses_anonymous_args = 0
	@ link register save eliminated.
	sub	sp, sp, #8
.LCFI21:
	str	r0, [sp, #4]
	.loc 4 490 9
	ldr	r3, [sp, #4]
	ldr	r3, [r3]
	.loc 4 490 8
	cmp	r3, #31
	bhi	.L19
	.loc 4 492 16
	mov	r3, #1342177280
	b	.L20
.L19:
	.loc 4 496 18
	ldr	r3, [sp, #4]
	ldr	r3, [r3]
	.loc 4 496 25
	and	r2, r3, #31
	.loc 4 496 16
	ldr	r3, [sp, #4]
	str	r2, [r3]
	.loc 4 497 16
	ldr	r3, .L21
.L20:
	.loc 4 500 1
	mov	r0, r3
	add	sp, sp, #8
.LCFI22:
	@ sp needed
	bx	lr
.L22:
	.align	2
.L21:
	.word	1342178048
.LFE234:
	.size	nrf_gpio_pin_port_decode, .-nrf_gpio_pin_port_decode
	.section	.text.nrf_gpio_pin_set,"ax",%progbits
	.align	1
	.syntax unified
	.thumb
	.thumb_func
	.fpu softvfp
	.type	nrf_gpio_pin_set, %function
nrf_gpio_pin_set:
.LFB246:
	.loc 4 644 1
	@ args = 0, pretend = 0, frame = 16
	@ frame_needed = 0, uses_anonymous_args = 0
	push	{lr}
.LCFI23:
	sub	sp, sp, #20
.LCFI24:
	str	r0, [sp, #4]
	.loc 4 645 27
	add	r3, sp, #4
	mov	r0, r3
	bl	nrf_gpio_pin_port_decode
	str	r0, [sp, #12]
	.loc 4 647 5
	ldr	r3, [sp, #4]
	.loc 4 647 36
	movs	r2, #1
	lsl	r3, r2, r3
	.loc 4 647 5
	mov	r1, r3
	ldr	r0, [sp, #12]
	bl	nrf_gpio_port_out_set
	.loc 4 648 1
	nop
	add	sp, sp, #20
.LCFI25:
	@ sp needed
	ldr	pc, [sp], #4
.LFE246:
	.size	nrf_gpio_pin_set, .-nrf_gpio_pin_set
	.section	.text.nrf_gpio_pin_clear,"ax",%progbits
	.align	1
	.syntax unified
	.thumb
	.thumb_func
	.fpu softvfp
	.type	nrf_gpio_pin_clear, %function
nrf_gpio_pin_clear:
.LFB247:
	.loc 4 652 1
	@ args = 0, pretend = 0, frame = 16
	@ frame_needed = 0, uses_anonymous_args = 0
	push	{lr}
.LCFI26:
	sub	sp, sp, #20
.LCFI27:
	str	r0, [sp, #4]
	.loc 4 653 27
	add	r3, sp, #4
	mov	r0, r3
	bl	nrf_gpio_pin_port_decode
	str	r0, [sp, #12]
	.loc 4 655 5
	ldr	r3, [sp, #4]
	.loc 4 655 38
	movs	r2, #1
	lsl	r3, r2, r3
	.loc 4 655 5
	mov	r1, r3
	ldr	r0, [sp, #12]
	bl	nrf_gpio_port_out_clear
	.loc 4 656 1
	nop
	add	sp, sp, #20
.LCFI28:
	@ sp needed
	ldr	pc, [sp], #4
.LFE247:
	.size	nrf_gpio_pin_clear, .-nrf_gpio_pin_clear
	.section	.text.nrf_gpio_port_out_set,"ax",%progbits
	.align	1
	.syntax unified
	.thumb
	.thumb_func
	.fpu softvfp
	.type	nrf_gpio_port_out_set, %function
nrf_gpio_port_out_set:
.LFB263:
	.loc 4 775 1
	@ args = 0, pretend = 0, frame = 8
	@ frame_needed = 0, uses_anonymous_args = 0
	@ link register save eliminated.
	sub	sp, sp, #8
.LCFI29:
	str	r0, [sp, #4]
	str	r1, [sp]
	.loc 4 776 19
	ldr	r3, [sp, #4]
	ldr	r2, [sp]
	str	r2, [r3, #1288]
	.loc 4 777 1
	nop
	add	sp, sp, #8
.LCFI30:
	@ sp needed
	bx	lr
.LFE263:
	.size	nrf_gpio_port_out_set, .-nrf_gpio_port_out_set
	.section	.text.nrf_gpio_port_out_clear,"ax",%progbits
	.align	1
	.syntax unified
	.thumb
	.thumb_func
	.fpu softvfp
	.type	nrf_gpio_port_out_clear, %function
nrf_gpio_port_out_clear:
.LFB264:
	.loc 4 781 1
	@ args = 0, pretend = 0, frame = 8
	@ frame_needed = 0, uses_anonymous_args = 0
	@ link register save eliminated.
	sub	sp, sp, #8
.LCFI31:
	str	r0, [sp, #4]
	str	r1, [sp]
	.loc 4 782 19
	ldr	r3, [sp, #4]
	ldr	r2, [sp]
	str	r2, [r3, #1292]
	.loc 4 783 1
	nop
	add	sp, sp, #8
.LCFI32:
	@ sp needed
	bx	lr
.LFE264:
	.size	nrf_gpio_port_out_clear, .-nrf_gpio_port_out_clear
	.section	.bss.m_use_ppi_delay_workaround,"aw",%nobits
	.type	m_use_ppi_delay_workaround, %object
	.size	m_use_ppi_delay_workaround, 1
m_use_ppi_delay_workaround:
	.space	1
	.section	.bss.m_pwm_busy,"aw",%nobits
	.align	2
	.type	m_pwm_busy, %object
	.size	m_pwm_busy, 5
m_pwm_busy:
	.space	5
	.section	.bss.m_pwm_target_value,"aw",%nobits
	.align	2
	.type	m_pwm_target_value, %object
	.size	m_pwm_target_value, 20
m_pwm_target_value:
	.space	20
	.global	m_pwm_ready_counter
	.section	.bss.m_pwm_ready_counter,"aw",%nobits
	.align	2
	.type	m_pwm_ready_counter, %object
	.size	m_pwm_ready_counter, 10
m_pwm_ready_counter:
	.space	10
	.section	.bss.m_instances,"aw",%nobits
	.align	2
	.type	m_instances, %object
	.size	m_instances, 20
m_instances:
	.space	20
	.section	.text.pan73_workaround,"ax",%progbits
	.align	1
	.syntax unified
	.thumb
	.thumb_func
	.fpu softvfp
	.type	pan73_workaround, %function
pan73_workaround:
.LFB269:
	.file 5 "C:\\Users\\BertLenovo\\Downloads\\nRF5_2\\components\\libraries\\pwm\\app_pwm.c"
	.loc 5 127 1
	@ args = 0, pretend = 0, frame = 8
	@ frame_needed = 0, uses_anonymous_args = 0
	@ link register save eliminated.
	sub	sp, sp, #8
.LCFI33:
	str	r0, [sp, #4]
	mov	r3, r1
	strb	r3, [sp, #3]
	.loc 5 145 1
	nop
	add	sp, sp, #8
.LCFI34:
	@ sp needed
	bx	lr
.LFE269:
	.size	pan73_workaround, .-pan73_workaround
	.section	.text.app_pwm_busy_check,"ax",%progbits
	.align	1
	.global	app_pwm_busy_check
	.syntax unified
	.thumb
	.thumb_func
	.fpu softvfp
	.type	app_pwm_busy_check, %function
app_pwm_busy_check:
.LFB270:
	.loc 5 148 1
	@ args = 0, pretend = 0, frame = 16
	@ frame_needed = 0, uses_anonymous_args = 0
	push	{lr}
.LCFI35:
	sub	sp, sp, #20
.LCFI36:
	str	r0, [sp, #4]
	.loc 5 149 48
	ldr	r3, [sp, #4]
	ldr	r3, [r3, #4]
	.loc 5 149 57
	ldrb	r3, [r3, #4]	@ zero_extendqisi2
	mov	r2, r3
	.loc 5 149 13
	ldr	r3, .L33
	ldrb	r3, [r3, r2]
	strb	r3, [sp, #14]
	.loc 5 150 10
	movs	r3, #1
	strb	r3, [sp, #15]
	.loc 5 151 8
	ldrb	r3, [sp, #14]	@ zero_extendqisi2
	cmp	r3, #255
	beq	.L29
	.loc 5 153 12
	ldrb	r3, [sp, #14]	@ zero_extendqisi2
	cmp	r3, #254
	beq	.L31
	.loc 5 155 53
	ldr	r3, [sp, #4]
	ldr	r3, [r3, #4]
	.loc 5 155 17
	ldrb	r2, [sp, #14]	@ zero_extendqisi2
	mov	r1, r2
	mov	r0, r3
	bl	nrfx_timer_capture_get
	mov	r2, r0
	.loc 5 156 49
	ldr	r3, [sp, #4]
	ldr	r3, [r3, #4]
	.loc 5 156 58
	ldrb	r3, [r3, #4]	@ zero_extendqisi2
	mov	r1, r3
	.loc 5 156 38
	ldr	r3, .L33+4
	ldr	r3, [r3, r1, lsl #2]
	.loc 5 155 16
	cmp	r2, r3
	bne	.L31
	.loc 5 158 38
	ldr	r3, [sp, #4]
	ldr	r3, [r3, #4]
	.loc 5 158 47
	ldrb	r3, [r3, #4]	@ zero_extendqisi2
	mov	r2, r3
	.loc 5 158 62
	ldr	r3, .L33
	movs	r1, #255
	strb	r1, [r3, r2]
	.loc 5 159 22
	movs	r3, #0
	strb	r3, [sp, #15]
	b	.L31
.L29:
	.loc 5 165 14
	movs	r3, #0
	strb	r3, [sp, #15]
.L31:
	.loc 5 167 12
	ldrb	r3, [sp, #15]	@ zero_extendqisi2
	.loc 5 168 1
	mov	r0, r3
	add	sp, sp, #20
.LCFI37:
	@ sp needed
	ldr	pc, [sp], #4
.L34:
	.align	2
.L33:
	.word	m_pwm_busy
	.word	m_pwm_target_value
.LFE270:
	.size	app_pwm_busy_check, .-app_pwm_busy_check
	.section	.text.pwm_irq_enable,"ax",%progbits
	.align	1
	.syntax unified
	.thumb
	.thumb_func
	.fpu softvfp
	.type	pwm_irq_enable, %function
pwm_irq_enable:
.LFB271:
	.loc 5 177 1
	@ args = 0, pretend = 0, frame = 8
	@ frame_needed = 0, uses_anonymous_args = 0
	push	{lr}
.LCFI38:
	sub	sp, sp, #12
.LCFI39:
	str	r0, [sp, #4]
	.loc 5 178 48
	ldr	r3, [sp, #4]
	ldr	r3, [r3, #4]
	.loc 5 178 5
	movs	r1, #2
	mov	r0, r3
	bl	nrfx_timer_compare_int_enable
	.loc 5 179 1
	nop
	add	sp, sp, #12
.LCFI40:
	@ sp needed
	ldr	pc, [sp], #4
.LFE271:
	.size	pwm_irq_enable, .-pwm_irq_enable
	.section	.text.pwm_irq_disable,"ax",%progbits
	.align	1
	.syntax unified
	.thumb
	.thumb_func
	.fpu softvfp
	.type	pwm_irq_disable, %function
pwm_irq_disable:
.LFB272:
	.loc 5 188 1
	@ args = 0, pretend = 0, frame = 8
	@ frame_needed = 0, uses_anonymous_args = 0
	push	{lr}
.LCFI41:
	sub	sp, sp, #12
.LCFI42:
	str	r0, [sp, #4]
	.loc 5 189 49
	ldr	r3, [sp, #4]
	ldr	r3, [r3, #4]
	.loc 5 189 5
	movs	r1, #2
	mov	r0, r3
	bl	nrfx_timer_compare_int_disable
	.loc 5 190 1
	nop
	add	sp, sp, #12
.LCFI43:
	@ sp needed
	ldr	pc, [sp], #4
.LFE272:
	.size	pwm_irq_disable, .-pwm_irq_disable
	.section	.text.pwm_ready_tick,"ax",%progbits
	.align	1
	.global	pwm_ready_tick
	.syntax unified
	.thumb
	.thumb_func
	.fpu softvfp
	.type	pwm_ready_tick, %function
pwm_ready_tick:
.LFB273:
	.loc 5 228 1
	@ args = 0, pretend = 0, frame = 24
	@ frame_needed = 0, uses_anonymous_args = 0
	push	{lr}
.LCFI44:
	sub	sp, sp, #28
.LCFI45:
	mov	r3, r0
	str	r1, [sp]
	strh	r3, [sp, #6]	@ movhi
	.loc 5 229 14
	ldr	r3, [sp]
	str	r3, [sp, #16]
	.loc 5 230 13
	movs	r3, #1
	strb	r3, [sp, #23]
.LBB2:
	.loc 5 232 18
	movs	r3, #0
	strb	r3, [sp, #22]
	.loc 5 232 5
	b	.L38
.L41:
	.loc 5 234 51
	ldrb	r3, [sp, #22]	@ zero_extendqisi2
	ldr	r1, .L44
	ldr	r2, [sp, #16]
	lsls	r2, r2, #1
	add	r2, r2, r1
	add	r3, r3, r2
	ldrb	r3, [r3]
	uxtb	r3, r3
	.loc 5 234 12
	cmp	r3, #0
	beq	.L39
	.loc 5 236 53
	ldrb	r3, [sp, #22]	@ zero_extendqisi2
	ldr	r1, .L44
	ldr	r2, [sp, #16]
	lsls	r2, r2, #1
	add	r2, r2, r1
	add	r2, r2, r3
	ldrb	r2, [r2]
	uxtb	r2, r2
	.loc 5 236 13
	subs	r2, r2, #1
	uxtb	r0, r2
	ldr	r1, .L44
	ldr	r2, [sp, #16]
	lsls	r2, r2, #1
	add	r2, r2, r1
	add	r3, r3, r2
	mov	r2, r0
	strb	r2, [r3]
	.loc 5 237 56
	ldrb	r3, [sp, #22]	@ zero_extendqisi2
	ldr	r1, .L44
	ldr	r2, [sp, #16]
	lsls	r2, r2, #1
	add	r2, r2, r1
	add	r3, r3, r2
	ldrb	r3, [r3]
	uxtb	r3, r3
	.loc 5 237 16
	cmp	r3, #0
	bne	.L40
.LBB3:
	.loc 5 239 50
	ldr	r2, .L44+4
	ldr	r3, [sp, #16]
	ldr	r3, [r2, r3, lsl #2]
	.loc 5 239 32
	ldr	r3, [r3]
	str	r3, [sp, #12]
	.loc 5 240 21
	ldr	r3, [sp, #12]
	ldr	r3, [r3, #28]
	.loc 5 240 17
	ldr	r0, [sp, #16]
	blx	r3
.LVL0:
.LBE3:
	b	.L39
.L40:
	.loc 5 244 25
	movs	r3, #0
	strb	r3, [sp, #23]
.L39:
	.loc 5 232 72 discriminator 2
	ldrb	r3, [sp, #22]
	adds	r3, r3, #1
	strb	r3, [sp, #22]
.L38:
	.loc 5 232 5 discriminator 1
	ldrb	r3, [sp, #22]	@ zero_extendqisi2
	cmp	r3, #1
	bls	.L41
.LBE2:
	.loc 5 249 8
	ldrb	r3, [sp, #23]	@ zero_extendqisi2
	cmp	r3, #0
	beq	.L43
	.loc 5 251 9
	ldr	r2, .L44+4
	ldr	r3, [sp, #16]
	ldr	r3, [r2, r3, lsl #2]
	mov	r0, r3
	bl	pwm_irq_disable
.L43:
	.loc 5 253 1
	nop
	add	sp, sp, #28
.LCFI46:
	@ sp needed
	ldr	pc, [sp], #4
.L45:
	.align	2
.L44:
	.word	m_pwm_ready_counter
	.word	m_instances
.LFE273:
	.size	pwm_ready_tick, .-pwm_ready_tick
	.section	.text.pwm_dealloc,"ax",%progbits
	.align	1
	.syntax unified
	.thumb
	.thumb_func
	.fpu softvfp
	.type	pwm_dealloc, %function
pwm_dealloc:
.LFB274:
	.loc 5 263 1
	@ args = 0, pretend = 0, frame = 16
	@ frame_needed = 0, uses_anonymous_args = 0
	push	{lr}
.LCFI47:
	sub	sp, sp, #20
.LCFI48:
	str	r0, [sp, #4]
	.loc 5 264 20
	ldr	r3, [sp, #4]
	ldr	r3, [r3]
	str	r3, [sp, #8]
	.loc 5 267 5
	ldr	r3, [sp, #8]
	ldrb	r3, [r3, #32]	@ zero_extendqisi2
	mov	r0, r3
	bl	nrfx_ppi_channel_free
.LBB4:
	.loc 5 281 18
	movs	r3, #0
	strb	r3, [sp, #15]
	.loc 5 281 5
	b	.L47
.L52:
.LBB5:
	.loc 5 283 22
	movs	r3, #0
	strb	r3, [sp, #14]
	.loc 5 283 9
	b	.L48
.L50:
	.loc 5 285 51
	ldrb	r2, [sp, #15]	@ zero_extendqisi2
	ldrb	r1, [sp, #14]	@ zero_extendqisi2
	ldr	r0, [sp, #8]
	mov	r3, r2
	lsls	r3, r3, #1
	add	r3, r3, r2
	lsls	r3, r3, #2
	add	r3, r3, r0
	add	r3, r3, r1
	adds	r3, r3, #8
	ldrb	r3, [r3]	@ zero_extendqisi2
	.loc 5 285 16
	cmp	r3, #255
	beq	.L49
	.loc 5 287 17
	ldrb	r2, [sp, #15]	@ zero_extendqisi2
	ldrb	r1, [sp, #14]	@ zero_extendqisi2
	ldr	r0, [sp, #8]
	mov	r3, r2
	lsls	r3, r3, #1
	add	r3, r3, r2
	lsls	r3, r3, #2
	add	r3, r3, r0
	add	r3, r3, r1
	adds	r3, r3, #8
	ldrb	r3, [r3]	@ zero_extendqisi2
	mov	r0, r3
	bl	nrfx_ppi_channel_free
	.loc 5 288 51
	ldrb	r2, [sp, #15]	@ zero_extendqisi2
	ldrb	r1, [sp, #14]	@ zero_extendqisi2
	.loc 5 288 55
	ldr	r0, [sp, #8]
	mov	r3, r2
	lsls	r3, r3, #1
	add	r3, r3, r2
	lsls	r3, r3, #2
	add	r3, r3, r0
	add	r3, r3, r1
	adds	r3, r3, #8
	movs	r2, #255
	strb	r2, [r3]
.L49:
	.loc 5 283 76 discriminator 2
	ldrb	r3, [sp, #14]
	adds	r3, r3, #1
	strb	r3, [sp, #14]
.L48:
	.loc 5 283 9 discriminator 1
	ldrb	r3, [sp, #14]	@ zero_extendqisi2
	cmp	r3, #1
	bls	.L50
.LBE5:
	.loc 5 291 34
	ldrb	r2, [sp, #15]	@ zero_extendqisi2
	ldr	r1, [sp, #8]
	mov	r3, r2
	lsls	r3, r3, #1
	add	r3, r3, r2
	lsls	r3, r3, #2
	add	r3, r3, r1
	ldr	r3, [r3]
	.loc 5 291 12
	cmp	r3, #-1
	beq	.L51
	.loc 5 293 13
	ldrb	r2, [sp, #15]	@ zero_extendqisi2
	ldr	r1, [sp, #8]
	mov	r3, r2
	lsls	r3, r3, #1
	add	r3, r3, r2
	lsls	r3, r3, #2
	add	r3, r3, r1
	ldr	r3, [r3]
	mov	r0, r3
	bl	nrfx_gpiote_out_uninit
	.loc 5 294 34
	ldrb	r2, [sp, #15]	@ zero_extendqisi2
	.loc 5 294 44
	ldr	r1, [sp, #8]
	mov	r3, r2
	lsls	r3, r3, #1
	add	r3, r3, r2
	lsls	r3, r3, #2
	add	r3, r3, r1
	mov	r2, #-1
	str	r2, [r3]
.L51:
	.loc 5 296 30 discriminator 2
	ldrb	r2, [sp, #15]	@ zero_extendqisi2
	.loc 5 296 43 discriminator 2
	ldr	r1, [sp, #8]
	mov	r3, r2
	lsls	r3, r3, #1
	add	r3, r3, r2
	lsls	r3, r3, #2
	add	r3, r3, r1
	adds	r3, r3, #11
	movs	r2, #0
	strb	r2, [r3]
	.loc 5 281 62 discriminator 2
	ldrb	r3, [sp, #15]
	adds	r3, r3, #1
	strb	r3, [sp, #15]
.L47:
	.loc 5 281 5 discriminator 1
	ldrb	r3, [sp, #15]	@ zero_extendqisi2
	cmp	r3, #1
	bls	.L52
.LBE4:
	.loc 5 298 36
	ldr	r3, [sp, #4]
	ldr	r3, [r3, #4]
	.loc 5 298 5
	mov	r0, r3
	bl	nrfx_timer_uninit
	.loc 5 299 5
	nop
	.loc 5 300 1
	add	sp, sp, #20
.LCFI49:
	@ sp needed
	ldr	pc, [sp], #4
.LFE274:
	.size	pwm_dealloc, .-pwm_dealloc
	.section	.text.pwm_transition,"ax",%progbits
	.align	1
	.syntax unified
	.thumb
	.thumb_func
	.fpu softvfp
	.type	pwm_transition, %function
pwm_transition:
.LFB275:
	.loc 5 548 1
	@ args = 0, pretend = 0, frame = 24
	@ frame_needed = 0, uses_anonymous_args = 0
	push	{r4, r5, lr}
.LCFI50:
	sub	sp, sp, #28
.LCFI51:
	str	r0, [sp, #4]
	mov	r3, r1
	strb	r3, [sp, #3]
	mov	r3, r2	@ movhi
	strh	r3, [sp]	@ movhi
	.loc 5 549 31
	ldr	r3, [sp, #4]
	ldr	r3, [r3]
	str	r3, [sp, #20]
	.loc 5 550 60
	ldrb	r2, [sp, #3]	@ zero_extendqisi2
	.loc 5 550 31
	mov	r3, r2
	lsls	r3, r3, #1
	add	r3, r3, r2
	lsls	r3, r3, #2
	ldr	r2, [sp, #20]
	add	r3, r3, r2
	str	r3, [sp, #16]
	.loc 5 551 31
	ldrb	r3, [sp, #3]
	strb	r3, [sp, #15]
	.loc 5 553 5
	ldr	r3, [sp, #20]
	ldrb	r3, [r3, #32]	@ zero_extendqisi2
	mov	r0, r3
	bl	nrfx_ppi_channel_disable
	.loc 5 555 8
	ldrh	r3, [sp]
	cmp	r3, #0
	bne	.L55
	.loc 5 557 9
	ldr	r3, [sp, #16]
	ldrb	r3, [r3, #9]	@ zero_extendqisi2
	mov	r0, r3
	bl	nrfx_ppi_channel_disable
	.loc 5 558 9
	ldr	r3, [sp, #16]
	ldrb	r3, [r3, #8]	@ zero_extendqisi2
	mov	r0, r3
	bl	nrfx_ppi_channel_enable
	.loc 5 559 30
	ldr	r3, [sp, #4]
	ldr	r3, [r3, #4]
	.loc 5 559 39
	ldrb	r3, [r3, #4]	@ zero_extendqisi2
	mov	r2, r3
	.loc 5 559 54
	ldr	r3, .L63
	movs	r1, #255
	strb	r1, [r3, r2]
	b	.L56
.L55:
	.loc 5 561 20
	ldrh	r2, [sp]
	.loc 5 561 27
	ldr	r3, [sp, #20]
	ldr	r3, [r3, #24]
	.loc 5 561 13
	cmp	r2, r3
	bcc	.L57
	.loc 5 563 21
	ldr	r3, [sp, #20]
	ldr	r3, [r3, #24]
	.loc 5 563 15
	strh	r3, [sp]	@ movhi
	.loc 5 564 9
	ldr	r3, [sp, #16]
	ldrb	r3, [r3, #8]	@ zero_extendqisi2
	mov	r0, r3
	bl	nrfx_ppi_channel_disable
	.loc 5 565 9
	ldr	r3, [sp, #16]
	ldrb	r3, [r3, #9]	@ zero_extendqisi2
	mov	r0, r3
	bl	nrfx_ppi_channel_enable
	.loc 5 566 30
	ldr	r3, [sp, #4]
	ldr	r3, [r3, #4]
	.loc 5 566 39
	ldrb	r3, [r3, #4]	@ zero_extendqisi2
	mov	r2, r3
	.loc 5 566 54
	ldr	r3, .L63
	movs	r1, #255
	strb	r1, [r3, r2]
	b	.L56
.L57:
	.loc 5 571 21
	ldr	r3, [sp, #16]
	ldr	r2, [r3, #4]
	.loc 5 571 41
	ldr	r3, [sp, #20]
	ldr	r3, [r3, #24]
	.loc 5 571 12
	cmp	r2, r3
	beq	.L58
	.loc 5 571 62 discriminator 1
	ldr	r3, [sp, #16]
	ldr	r3, [r3, #4]
	.loc 5 571 51 discriminator 1
	cmp	r3, #0
	beq	.L58
	.loc 5 571 91 discriminator 2
	ldrh	r2, [sp]
	.loc 5 571 100 discriminator 2
	ldr	r3, [sp, #16]
	ldr	r3, [r3, #4]
	.loc 5 571 81 discriminator 2
	cmp	r2, r3
	bcs	.L58
	.loc 5 573 45
	ldr	r3, [sp, #4]
	ldr	r0, [r3, #4]
	.loc 5 573 13
	ldr	r3, [sp, #16]
	ldr	r2, [r3, #4]
	movs	r3, #0
	movs	r1, #3
	bl	nrfx_timer_compare
	.loc 5 574 13
	ldr	r3, [sp, #20]
	ldrb	r4, [r3, #32]	@ zero_extendqisi2
	.loc 5 575 90
	ldr	r3, [sp, #4]
	ldr	r3, [r3, #4]
	.loc 5 574 13
	movs	r1, #3
	mov	r0, r3
	bl	nrfx_timer_compare_event_address_get
	mov	r5, r0
	.loc 5 576 47
	ldr	r3, [sp, #16]
	ldrb	r3, [r3, #10]	@ zero_extendqisi2
	.loc 5 574 13
	cmp	r3, #0
	beq	.L59
	.loc 5 576 60
	ldr	r3, [sp, #16]
	ldr	r3, [r3]
	mov	r0, r3
	bl	nrfx_gpiote_clr_task_addr_get
	mov	r3, r0
	b	.L60
.L59:
	.loc 5 576 114
	ldr	r3, [sp, #16]
	ldr	r3, [r3]
	mov	r0, r3
	bl	nrfx_gpiote_set_task_addr_get
	mov	r3, r0
.L60:
	.loc 5 574 13
	mov	r2, r3
	mov	r1, r5
	mov	r0, r4
	bl	nrfx_ppi_channel_assign
	.loc 5 577 13
	ldr	r3, [sp, #20]
	ldrb	r3, [r3, #32]	@ zero_extendqisi2
	mov	r0, r3
	bl	nrfx_ppi_channel_enable
	.loc 5 578 34
	ldr	r3, [sp, #4]
	ldr	r3, [r3, #4]
	.loc 5 578 43
	ldrb	r3, [r3, #4]	@ zero_extendqisi2
	mov	r1, r3
	.loc 5 578 58
	ldr	r2, .L63
	ldrb	r3, [sp, #3]
	strb	r3, [r2, r1]
	.loc 5 579 42
	ldr	r3, [sp, #4]
	ldr	r3, [r3, #4]
	.loc 5 579 51
	ldrb	r3, [r3, #4]	@ zero_extendqisi2
	mov	r1, r3
	.loc 5 579 66
	ldrh	r3, [sp]
	ldr	r2, .L63+4
	str	r3, [r2, r1, lsl #2]
	b	.L61
.L58:
	.loc 5 583 34
	ldr	r3, [sp, #4]
	ldr	r3, [r3, #4]
	.loc 5 583 43
	ldrb	r3, [r3, #4]	@ zero_extendqisi2
	mov	r2, r3
	.loc 5 583 58
	ldr	r3, .L63
	movs	r1, #255
	strb	r1, [r3, r2]
.L61:
	.loc 5 586 41
	ldr	r3, [sp, #4]
	ldr	r0, [r3, #4]
	.loc 5 586 9
	ldrh	r2, [sp]
	ldrb	r1, [sp, #15]	@ zero_extendqisi2
	movs	r3, #0
	bl	nrfx_timer_compare
	.loc 5 588 9
	ldr	r3, [sp, #16]
	ldrb	r3, [r3, #8]	@ zero_extendqisi2
	mov	r0, r3
	bl	nrfx_ppi_channel_enable
	.loc 5 589 9
	ldr	r3, [sp, #16]
	ldrb	r3, [r3, #9]	@ zero_extendqisi2
	mov	r0, r3
	bl	nrfx_ppi_channel_enable
.L56:
	.loc 5 591 25
	ldrh	r2, [sp]
	ldr	r3, [sp, #16]
	str	r2, [r3, #4]
	.loc 5 592 5
	nop
	.loc 5 593 1
	add	sp, sp, #28
.LCFI52:
	@ sp needed
	pop	{r4, r5, pc}
.L64:
	.align	2
.L63:
	.word	m_pwm_busy
	.word	m_pwm_target_value
.LFE275:
	.size	pwm_transition, .-pwm_transition
	.section	.text.app_pwm_channel_duty_ticks_set,"ax",%progbits
	.align	1
	.global	app_pwm_channel_duty_ticks_set
	.syntax unified
	.thumb
	.thumb_func
	.fpu softvfp
	.type	app_pwm_channel_duty_ticks_set, %function
app_pwm_channel_duty_ticks_set:
.LFB276:
	.loc 5 599 1
	@ args = 0, pretend = 0, frame = 16
	@ frame_needed = 0, uses_anonymous_args = 0
	push	{lr}
.LCFI53:
	sub	sp, sp, #20
.LCFI54:
	str	r0, [sp, #4]
	mov	r3, r1
	strb	r3, [sp, #3]
	mov	r3, r2	@ movhi
	strh	r3, [sp]	@ movhi
	.loc 5 600 28
	ldr	r3, [sp, #4]
	ldr	r3, [r3]
	str	r3, [sp, #12]
	.loc 5 601 56
	ldrb	r2, [sp, #3]	@ zero_extendqisi2
	.loc 5 601 28
	mov	r3, r2
	lsls	r3, r3, #1
	add	r3, r3, r2
	lsls	r3, r3, #2
	ldr	r2, [sp, #12]
	add	r3, r3, r2
	str	r3, [sp, #8]
	.loc 5 606 13
	ldr	r3, [sp, #12]
	ldrb	r3, [r3, #33]	@ zero_extendqisi2
	.loc 5 606 8
	cmp	r3, #2
	beq	.L66
	.loc 5 608 16
	movs	r3, #8
	b	.L67
.L66:
	.loc 5 610 15
	ldrh	r2, [sp]
	.loc 5 610 25
	ldr	r3, [sp, #8]
	ldr	r3, [r3, #4]
	.loc 5 610 8
	cmp	r2, r3
	bne	.L68
	.loc 5 612 17
	ldr	r3, [sp, #12]
	ldr	r3, [r3, #28]
	.loc 5 612 12
	cmp	r3, #0
	beq	.L69
	.loc 5 614 17
	ldr	r3, [sp, #12]
	ldr	r3, [r3, #28]
	.loc 5 614 46
	ldr	r2, [sp, #4]
	ldr	r2, [r2, #4]
	.loc 5 614 55
	ldrb	r2, [r2, #4]	@ zero_extendqisi2
	.loc 5 614 13
	mov	r0, r2
	blx	r3
.LVL1:
.L69:
	.loc 5 616 16
	movs	r3, #0
	b	.L67
.L68:
	.loc 5 618 9
	ldr	r0, [sp, #4]
	bl	app_pwm_busy_check
	mov	r3, r0
	.loc 5 618 8
	cmp	r3, #0
	beq	.L70
	.loc 5 620 16
	movs	r3, #17
	b	.L67
.L70:
	.loc 5 623 26
	ldr	r3, [sp, #4]
	ldr	r3, [r3, #4]
	.loc 5 623 35
	ldrb	r3, [r3, #4]	@ zero_extendqisi2
	mov	r2, r3
	.loc 5 623 50
	ldr	r3, .L72
	movs	r1, #254
	strb	r1, [r3, r2]
	.loc 5 627 5
	ldrh	r2, [sp]
	ldrb	r3, [sp, #3]	@ zero_extendqisi2
	mov	r1, r3
	ldr	r0, [sp, #4]
	bl	pwm_transition
	.loc 5 629 19
	ldr	r3, [sp, #4]
	ldr	r3, [r3]
	.loc 5 629 25
	ldr	r3, [r3, #28]
	.loc 5 629 8
	cmp	r3, #0
	beq	.L71
	.loc 5 632 39
	ldr	r3, [sp, #4]
	ldr	r3, [r3, #4]
	.loc 5 632 48
	ldrb	r3, [r3, #4]	@ zero_extendqisi2
	mov	r2, r3
	.loc 5 632 62
	ldrb	r3, [sp, #3]	@ zero_extendqisi2
	.loc 5 632 72
	ldr	r1, .L72+4
	lsls	r2, r2, #1
	add	r2, r2, r1
	add	r3, r3, r2
	movs	r2, #2
	strb	r2, [r3]
	.loc 5 633 9
	ldr	r0, [sp, #4]
	bl	pwm_irq_enable
.L71:
	.loc 5 635 12
	movs	r3, #0
.L67:
	.loc 5 636 1
	mov	r0, r3
	add	sp, sp, #20
.LCFI55:
	@ sp needed
	ldr	pc, [sp], #4
.L73:
	.align	2
.L72:
	.word	m_pwm_busy
	.word	m_pwm_ready_counter
.LFE276:
	.size	app_pwm_channel_duty_ticks_set, .-app_pwm_channel_duty_ticks_set
	.section	.text.app_pwm_channel_duty_ticks_get,"ax",%progbits
	.align	1
	.global	app_pwm_channel_duty_ticks_get
	.syntax unified
	.thumb
	.thumb_func
	.fpu softvfp
	.type	app_pwm_channel_duty_ticks_get, %function
app_pwm_channel_duty_ticks_get:
.LFB277:
	.loc 5 639 1
	@ args = 0, pretend = 0, frame = 16
	@ frame_needed = 0, uses_anonymous_args = 0
	@ link register save eliminated.
	sub	sp, sp, #16
.LCFI56:
	str	r0, [sp, #4]
	mov	r3, r1
	strb	r3, [sp, #3]
	.loc 5 640 28
	ldr	r3, [sp, #4]
	ldr	r3, [r3]
	str	r3, [sp, #12]
	.loc 5 641 58
	ldrb	r2, [sp, #3]	@ zero_extendqisi2
	.loc 5 641 28
	mov	r3, r2
	lsls	r3, r3, #1
	add	r3, r3, r2
	lsls	r3, r3, #2
	ldr	r2, [sp, #12]
	add	r3, r3, r2
	str	r3, [sp, #8]
	.loc 5 643 19
	ldr	r3, [sp, #8]
	ldr	r3, [r3, #4]
	uxth	r3, r3
	.loc 5 644 1
	mov	r0, r3
	add	sp, sp, #16
.LCFI57:
	@ sp needed
	bx	lr
.LFE277:
	.size	app_pwm_channel_duty_ticks_get, .-app_pwm_channel_duty_ticks_get
	.section	.text.app_pwm_cycle_ticks_get,"ax",%progbits
	.align	1
	.global	app_pwm_cycle_ticks_get
	.syntax unified
	.thumb
	.thumb_func
	.fpu softvfp
	.type	app_pwm_cycle_ticks_get, %function
app_pwm_cycle_ticks_get:
.LFB278:
	.loc 5 647 1
	@ args = 0, pretend = 0, frame = 16
	@ frame_needed = 0, uses_anonymous_args = 0
	@ link register save eliminated.
	sub	sp, sp, #16
.LCFI58:
	str	r0, [sp, #4]
	.loc 5 648 20
	ldr	r3, [sp, #4]
	ldr	r3, [r3]
	str	r3, [sp, #12]
	.loc 5 650 26
	ldr	r3, [sp, #12]
	ldr	r3, [r3, #24]
	.loc 5 650 12
	uxth	r3, r3
	.loc 5 651 1
	mov	r0, r3
	add	sp, sp, #16
.LCFI59:
	@ sp needed
	bx	lr
.LFE278:
	.size	app_pwm_cycle_ticks_get, .-app_pwm_cycle_ticks_get
	.section	.text.app_pwm_channel_duty_set,"ax",%progbits
	.align	1
	.global	app_pwm_channel_duty_set
	.syntax unified
	.thumb
	.thumb_func
	.fpu softvfp
	.type	app_pwm_channel_duty_set, %function
app_pwm_channel_duty_set:
.LFB279:
	.loc 5 655 1
	@ args = 0, pretend = 0, frame = 16
	@ frame_needed = 0, uses_anonymous_args = 0
	push	{lr}
.LCFI60:
	sub	sp, sp, #20
.LCFI61:
	str	r0, [sp, #4]
	mov	r3, r1
	strb	r3, [sp, #3]
	mov	r3, r2	@ movhi
	strh	r3, [sp]	@ movhi
	.loc 5 656 33
	ldr	r0, [sp, #4]
	bl	app_pwm_cycle_ticks_get
	mov	r3, r0
	.loc 5 656 23
	mov	r2, r3
	.loc 5 656 71
	ldrh	r3, [sp]
	.loc 5 656 69
	mul	r3, r3, r2
	.loc 5 656 14
	ldr	r2, .L80
	umull	r2, r3, r2, r3
	lsrs	r3, r3, #5
	str	r3, [sp, #12]
	.loc 5 657 12
	ldr	r3, [sp, #12]
	uxth	r2, r3
	ldrb	r3, [sp, #3]	@ zero_extendqisi2
	mov	r1, r3
	ldr	r0, [sp, #4]
	bl	app_pwm_channel_duty_ticks_set
	mov	r3, r0
	.loc 5 658 1
	mov	r0, r3
	add	sp, sp, #20
.LCFI62:
	@ sp needed
	ldr	pc, [sp], #4
.L81:
	.align	2
.L80:
	.word	1374389535
.LFE279:
	.size	app_pwm_channel_duty_set, .-app_pwm_channel_duty_set
	.section	.text.app_pwm_channel_duty_get,"ax",%progbits
	.align	1
	.global	app_pwm_channel_duty_get
	.syntax unified
	.thumb
	.thumb_func
	.fpu softvfp
	.type	app_pwm_channel_duty_get, %function
app_pwm_channel_duty_get:
.LFB280:
	.loc 5 662 1
	@ args = 0, pretend = 0, frame = 16
	@ frame_needed = 0, uses_anonymous_args = 0
	push	{r4, lr}
.LCFI63:
	sub	sp, sp, #16
.LCFI64:
	str	r0, [sp, #4]
	mov	r3, r1
	strb	r3, [sp, #3]
	.loc 5 663 33
	ldrb	r3, [sp, #3]	@ zero_extendqisi2
	mov	r1, r3
	ldr	r0, [sp, #4]
	bl	app_pwm_channel_duty_ticks_get
	mov	r3, r0
	.loc 5 663 23
	mov	r2, r3
	.loc 5 663 85
	movs	r3, #100
	mul	r4, r3, r2
	.loc 5 664 34
	ldr	r0, [sp, #4]
	bl	app_pwm_cycle_ticks_get
	mov	r3, r0
	.loc 5 663 14
	udiv	r3, r4, r3
	str	r3, [sp, #12]
	.loc 5 666 12
	ldr	r3, [sp, #12]
	uxth	r3, r3
	.loc 5 667 1
	mov	r0, r3
	add	sp, sp, #16
.LCFI65:
	@ sp needed
	pop	{r4, pc}
.LFE280:
	.size	app_pwm_channel_duty_get, .-app_pwm_channel_duty_get
	.section	.text.app_pwm_channel_init,"ax",%progbits
	.align	1
	.syntax unified
	.thumb
	.thumb_func
	.fpu softvfp
	.type	app_pwm_channel_init, %function
app_pwm_channel_init:
.LFB281:
	.loc 5 683 1
	@ args = 0, pretend = 0, frame = 48
	@ frame_needed = 0, uses_anonymous_args = 0
	push	{r4, lr}
.LCFI66:
	sub	sp, sp, #48
.LCFI67:
	str	r0, [sp, #12]
	str	r2, [sp, #4]
	mov	r2, r3
	mov	r3, r1
	strb	r3, [sp, #11]
	mov	r3, r2
	strb	r3, [sp, #10]
	.loc 5 685 20
	ldr	r3, [sp, #12]
	ldr	r3, [r3]
	str	r3, [sp, #40]
	.loc 5 686 61
	ldrb	r2, [sp, #11]	@ zero_extendqisi2
	.loc 5 686 28
	mov	r3, r2
	lsls	r3, r3, #1
	add	r3, r3, r2
	lsls	r3, r3, #2
	ldr	r2, [sp, #40]
	add	r3, r3, r2
	str	r3, [sp, #36]
	.loc 5 688 13
	ldr	r3, [sp, #40]
	ldrb	r3, [r3, #33]	@ zero_extendqisi2
	.loc 5 688 8
	cmp	r3, #0
	beq	.L85
	.loc 5 690 16
	movs	r3, #8
	b	.L97
.L85:
	.loc 5 693 30
	ldr	r3, [sp, #36]
	movs	r2, #0
	str	r2, [r3, #4]
	.loc 5 694 30
	ldr	r3, [sp, #36]
	ldrb	r2, [sp, #10]
	strb	r2, [r3, #10]
	.loc 5 698 33
	movs	r3, #3
	strb	r3, [sp, #20]
	.loc 5 698 43
	ldr	r3, [sp, #12]
	ldr	r1, [r3]
	ldrb	r2, [sp, #11]	@ zero_extendqisi2
	mov	r3, r2
	lsls	r3, r3, #1
	add	r3, r3, r2
	lsls	r3, r3, #2
	add	r3, r3, r1
	adds	r3, r3, #10
	ldrb	r3, [r3]	@ zero_extendqisi2
	cmp	r3, #0
	ite	eq
	moveq	r3, #1
	movne	r3, #0
	uxtb	r3, r3
	.loc 5 698 33
	strb	r3, [sp, #21]
	movs	r3, #1
	strb	r3, [sp, #22]
	.loc 5 699 16
	add	r3, sp, #20
	mov	r1, r3
	ldr	r0, [sp, #4]
	bl	nrfx_gpiote_out_init
	str	r0, [sp, #32]
	.loc 5 700 8
	ldr	r3, [sp, #32]
	cmp	r3, #0
	beq	.L87
	.loc 5 702 16
	movs	r3, #4
	b	.L97
.L87:
	.loc 5 704 31
	ldrb	r2, [sp, #11]	@ zero_extendqisi2
	.loc 5 704 41
	ldr	r1, [sp, #40]
	mov	r3, r2
	lsls	r3, r3, #1
	add	r3, r3, r2
	lsls	r3, r3, #2
	add	r3, r3, r1
	ldr	r2, [sp, #4]
	str	r2, [r3]
	.loc 5 707 8
	ldrb	r3, [sp, #10]	@ zero_extendqisi2
	cmp	r3, #0
	beq	.L88
	.loc 5 709 9
	ldr	r0, [sp, #4]
	bl	nrf_gpio_pin_clear
	b	.L89
.L88:
	.loc 5 713 9
	ldr	r0, [sp, #4]
	bl	nrf_gpio_pin_set
.L89:
.LBB6:
	.loc 5 717 18
	movs	r3, #0
	strb	r3, [sp, #47]
	.loc 5 717 5
	b	.L90
.L92:
	.loc 5 719 66
	ldrb	r3, [sp, #47]	@ zero_extendqisi2
	.loc 5 719 13
	adds	r3, r3, #8
	ldr	r2, [sp, #36]
	add	r3, r3, r2
	mov	r0, r3
	bl	nrfx_ppi_channel_alloc
	mov	r3, r0
	.loc 5 719 12
	cmp	r3, #0
	beq	.L91
	.loc 5 721 20
	movs	r3, #4
	b	.L97
.L91:
	.loc 5 717 72 discriminator 2
	ldrb	r3, [sp, #47]
	adds	r3, r3, #1
	strb	r3, [sp, #47]
.L90:
	.loc 5 717 5 discriminator 1
	ldrb	r3, [sp, #47]	@ zero_extendqisi2
	cmp	r3, #1
	bls	.L92
.LBE6:
	.loc 5 725 5
	ldr	r3, [sp, #36]
	ldrb	r3, [r3, #8]	@ zero_extendqisi2
	mov	r0, r3
	bl	nrfx_ppi_channel_disable
	.loc 5 726 5
	ldr	r3, [sp, #36]
	ldrb	r3, [r3, #9]	@ zero_extendqisi2
	mov	r0, r3
	bl	nrfx_ppi_channel_disable
	.loc 5 729 107
	ldrb	r3, [sp, #10]	@ zero_extendqisi2
	cmp	r3, #0
	beq	.L93
	.loc 5 729 50 discriminator 1
	ldr	r3, [sp, #36]
	ldr	r3, [r3]
	mov	r0, r3
	bl	nrfx_gpiote_clr_task_addr_get
	mov	r3, r0
	b	.L94
.L93:
	.loc 5 729 109 discriminator 2
	ldr	r3, [sp, #36]
	ldr	r3, [r3]
	mov	r0, r3
	bl	nrfx_gpiote_set_task_addr_get
	mov	r3, r0
.L94:
	.loc 5 729 14 discriminator 4
	str	r3, [sp, #28]
	.loc 5 730 107 discriminator 4
	ldrb	r3, [sp, #10]	@ zero_extendqisi2
	cmp	r3, #0
	beq	.L95
	.loc 5 730 50 discriminator 1
	ldr	r3, [sp, #36]
	ldr	r3, [r3]
	mov	r0, r3
	bl	nrfx_gpiote_set_task_addr_get
	mov	r3, r0
	b	.L96
.L95:
	.loc 5 730 109 discriminator 2
	ldr	r3, [sp, #36]
	ldr	r3, [r3]
	mov	r0, r3
	bl	nrfx_gpiote_clr_task_addr_get
	mov	r3, r0
.L96:
	.loc 5 730 14 discriminator 4
	str	r3, [sp, #24]
	.loc 5 732 5 discriminator 4
	ldr	r3, [sp, #36]
	ldrb	r4, [r3, #8]	@ zero_extendqisi2
	.loc 5 733 82 discriminator 4
	ldr	r3, [sp, #12]
	ldr	r3, [r3, #4]
	.loc 5 732 5 discriminator 4
	ldrb	r2, [sp, #11]	@ zero_extendqisi2
	mov	r1, r2
	mov	r0, r3
	bl	nrfx_timer_compare_event_address_get
	mov	r3, r0
	ldr	r2, [sp, #28]
	mov	r1, r3
	mov	r0, r4
	bl	nrfx_ppi_channel_assign
	.loc 5 735 5 discriminator 4
	ldr	r3, [sp, #36]
	ldrb	r4, [r3, #9]	@ zero_extendqisi2
	.loc 5 736 82 discriminator 4
	ldr	r3, [sp, #12]
	ldr	r3, [r3, #4]
	.loc 5 735 5 discriminator 4
	movs	r1, #2
	mov	r0, r3
	bl	nrfx_timer_compare_event_address_get
	mov	r3, r0
	ldr	r2, [sp, #24]
	mov	r1, r3
	mov	r0, r4
	bl	nrfx_ppi_channel_assign
	.loc 5 746 31 discriminator 4
	ldr	r3, [sp, #36]
	movs	r2, #1
	strb	r2, [r3, #11]
	.loc 5 747 35 discriminator 4
	ldr	r3, [sp, #12]
	ldr	r3, [r3, #4]
	.loc 5 747 44 discriminator 4
	ldrb	r3, [r3, #4]	@ zero_extendqisi2
	mov	r2, r3
	.loc 5 747 58 discriminator 4
	ldrb	r3, [sp, #11]	@ zero_extendqisi2
	.loc 5 747 68 discriminator 4
	ldr	r1, .L98
	lsls	r2, r2, #1
	add	r2, r2, r1
	add	r3, r3, r2
	movs	r2, #0
	strb	r2, [r3]
	.loc 5 749 12 discriminator 4
	movs	r3, #0
.L97:
	.loc 5 750 1 discriminator 1
	mov	r0, r3
	add	sp, sp, #48
.LCFI68:
	@ sp needed
	pop	{r4, pc}
.L99:
	.align	2
.L98:
	.word	m_pwm_ready_counter
.LFE281:
	.size	app_pwm_channel_init, .-app_pwm_channel_init
	.section	.text.pwm_calculate_timer_frequency,"ax",%progbits
	.align	1
	.syntax unified
	.thumb
	.thumb_func
	.fpu softvfp
	.type	pwm_calculate_timer_frequency, %function
pwm_calculate_timer_frequency:
.LFB282:
	.loc 5 761 1
	@ args = 0, pretend = 0, frame = 16
	@ frame_needed = 0, uses_anonymous_args = 0
	@ link register save eliminated.
	sub	sp, sp, #16
.LCFI69:
	str	r0, [sp, #4]
	.loc 5 762 14
	movs	r3, #0
	str	r3, [sp, #12]
	.loc 5 763 14
	movs	r3, #9
	str	r3, [sp, #8]
	.loc 5 765 11
	b	.L101
.L103:
	.loc 5 767 19
	ldr	r3, [sp, #4]
	lsrs	r3, r3, #1
	str	r3, [sp, #4]
	.loc 5 768 9
	ldr	r3, [sp, #12]
	adds	r3, r3, #1
	str	r3, [sp, #12]
.L101:
	.loc 5 765 11
	ldr	r3, [sp, #4]
	cmp	r3, #4096
	bcc	.L102
	.loc 5 765 57 discriminator 1
	ldr	r2, [sp, #12]
	ldr	r3, [sp, #8]
	cmp	r2, r3
	bcc	.L103
.L102:
	.loc 5 772 9
	ldr	r3, .L106
	ldrb	r3, [r3]	@ zero_extendqisi2
	.loc 5 772 8
	cmp	r3, #0
	beq	.L104
	.loc 5 772 38 discriminator 1
	ldr	r3, [sp, #12]
	cmp	r3, #0
	bne	.L104
	.loc 5 774 11
	movs	r3, #1
	str	r3, [sp, #12]
.L104:
	.loc 5 778 12
	ldr	r3, [sp, #12]
	uxtb	r3, r3
	.loc 5 779 1
	mov	r0, r3
	add	sp, sp, #16
.LCFI70:
	@ sp needed
	bx	lr
.L107:
	.align	2
.L106:
	.word	m_use_ppi_delay_workaround
.LFE282:
	.size	pwm_calculate_timer_frequency, .-pwm_calculate_timer_frequency
	.section	.text.app_pwm_init,"ax",%progbits
	.align	1
	.global	app_pwm_init
	.syntax unified
	.thumb
	.thumb_func
	.fpu softvfp
	.type	app_pwm_init, %function
app_pwm_init:
.LFB283:
	.loc 5 784 1
	@ args = 0, pretend = 0, frame = 48
	@ frame_needed = 0, uses_anonymous_args = 0
	push	{lr}
.LCFI71:
	sub	sp, sp, #60
.LCFI72:
	str	r0, [sp, #20]
	str	r1, [sp, #16]
	str	r2, [sp, #12]
	.loc 5 787 8
	ldr	r3, [sp, #16]
	cmp	r3, #0
	bne	.L109
	.loc 5 789 16
	movs	r3, #11
	b	.L124
.L109:
	.loc 5 792 20
	ldr	r3, [sp, #20]
	ldr	r3, [r3]
	str	r3, [sp, #48]
	.loc 5 794 13
	ldr	r3, [sp, #48]
	ldrb	r3, [r3, #33]	@ zero_extendqisi2
	.loc 5 794 8
	cmp	r3, #0
	beq	.L111
	.loc 5 796 16
	movs	r3, #8
	b	.L124
.L111:
	.loc 5 799 25
	bl	nrf_drv_ppi_init
	str	r0, [sp, #44]
	.loc 5 800 8
	ldr	r3, [sp, #44]
	cmp	r3, #0
	beq	.L112
	.loc 5 800 35 discriminator 1
	ldr	r3, [sp, #44]
	cmp	r3, #133
	beq	.L112
	.loc 5 802 16
	movs	r3, #4
	b	.L124
.L112:
	.loc 5 806 10
	bl	nrfx_gpiote_is_init
	mov	r3, r0
	.loc 5 806 9
	eor	r3, r3, #1
	uxtb	r3, r3
	.loc 5 806 8
	cmp	r3, #0
	beq	.L113
	.loc 5 808 20
	bl	nrfx_gpiote_init
	str	r0, [sp, #44]
	.loc 5 809 12
	ldr	r3, [sp, #44]
	cmp	r3, #0
	beq	.L113
	.loc 5 811 20
	movs	r3, #3
	b	.L124
.L113:
	.loc 5 816 11
	ldr	r3, .L125
	ldr	r3, [r3]
	.loc 5 816 36
	and	r3, r3, #240
	.loc 5 816 8
	cmp	r3, #48
	bne	.L114
	.loc 5 818 36
	ldr	r3, .L125+4
	movs	r2, #0
	strb	r2, [r3]
	b	.L115
.L114:
	.loc 5 822 36
	ldr	r3, .L125+4
	movs	r2, #1
	strb	r2, [r3]
.L115:
	.loc 5 828 23
	ldr	r3, [sp, #48]
	movs	r2, #255
	strb	r2, [r3, #32]
.LBB7:
	.loc 5 835 18
	movs	r3, #0
	strb	r3, [sp, #55]
	.loc 5 835 5
	b	.L116
.L117:
	.loc 5 837 29 discriminator 3
	ldrb	r2, [sp, #55]	@ zero_extendqisi2
	.loc 5 837 46 discriminator 3
	ldr	r1, [sp, #48]
	mov	r3, r2
	lsls	r3, r3, #1
	add	r3, r3, r2
	lsls	r3, r3, #2
	add	r3, r3, r1
	adds	r3, r3, #11
	movs	r2, #0
	strb	r2, [r3]
	.loc 5 838 42 discriminator 3
	ldrb	r2, [sp, #55]	@ zero_extendqisi2
	.loc 5 838 46 discriminator 3
	ldr	r1, [sp, #48]
	mov	r3, r2
	lsls	r3, r3, #1
	add	r3, r3, r2
	lsls	r3, r3, #2
	add	r3, r3, r1
	adds	r3, r3, #8
	movs	r2, #255
	strb	r2, [r3]
	.loc 5 839 42 discriminator 3
	ldrb	r2, [sp, #55]	@ zero_extendqisi2
	.loc 5 839 46 discriminator 3
	ldr	r1, [sp, #48]
	mov	r3, r2
	lsls	r3, r3, #1
	add	r3, r3, r2
	lsls	r3, r3, #2
	add	r3, r3, r1
	adds	r3, r3, #9
	movs	r2, #255
	strb	r2, [r3]
	.loc 5 840 29 discriminator 3
	ldrb	r2, [sp, #55]	@ zero_extendqisi2
	.loc 5 840 46 discriminator 3
	ldr	r1, [sp, #48]
	mov	r3, r2
	lsls	r3, r3, #1
	add	r3, r3, r2
	lsls	r3, r3, #2
	add	r3, r3, r1
	mov	r2, #-1
	str	r2, [r3]
	.loc 5 835 60 discriminator 3
	ldrb	r3, [sp, #55]
	adds	r3, r3, #1
	strb	r3, [sp, #55]
.L116:
	.loc 5 835 5 discriminator 1
	ldrb	r3, [sp, #55]	@ zero_extendqisi2
	cmp	r3, #1
	bls	.L117
.LBE7:
	.loc 5 846 9
	ldr	r3, [sp, #48]
	adds	r3, r3, #32
	mov	r0, r3
	bl	nrfx_ppi_channel_alloc
	mov	r3, r0
	.loc 5 846 8
	cmp	r3, #0
	beq	.L118
	.loc 5 848 9
	ldr	r0, [sp, #20]
	bl	pwm_dealloc
	.loc 5 849 16
	movs	r3, #4
	b	.L124
.L118:
.LBB8:
	.loc 5 868 18
	movs	r3, #0
	strb	r3, [sp, #54]
	.loc 5 868 5
	b	.L119
.L122:
	.loc 5 870 27
	ldrb	r2, [sp, #54]	@ zero_extendqisi2
	ldr	r3, [sp, #16]
	ldr	r3, [r3, r2, lsl #2]
	.loc 5 870 12
	cmp	r3, #-1
	beq	.L120
	.loc 5 872 24
	ldrb	r2, [sp, #54]	@ zero_extendqisi2
	ldr	r3, [sp, #16]
	ldr	r0, [r3, r2, lsl #2]
	ldrb	r3, [sp, #54]	@ zero_extendqisi2
	ldr	r2, [sp, #16]
	add	r3, r3, r2
	ldrb	r3, [r3, #8]	@ zero_extendqisi2
	ldrb	r1, [sp, #54]	@ zero_extendqisi2
	mov	r2, r0
	ldr	r0, [sp, #20]
	bl	app_pwm_channel_init
	str	r0, [sp, #44]
	.loc 5 873 16
	ldr	r3, [sp, #44]
	cmp	r3, #0
	beq	.L121
	.loc 5 875 17
	ldr	r0, [sp, #20]
	bl	pwm_dealloc
	.loc 5 876 24
	ldr	r3, [sp, #44]
	b	.L124
.L121:
	.loc 5 878 13
	ldrb	r3, [sp, #54]	@ zero_extendqisi2
	movs	r2, #0
	mov	r1, r3
	ldr	r0, [sp, #20]
	bl	app_pwm_channel_duty_ticks_set
.L120:
	.loc 5 868 60 discriminator 2
	ldrb	r3, [sp, #54]
	adds	r3, r3, #1
	strb	r3, [sp, #54]
.L119:
	.loc 5 868 5 discriminator 1
	ldrb	r3, [sp, #54]	@ zero_extendqisi2
	cmp	r3, #1
	bls	.L122
.LBE8:
	.loc 5 883 41
	ldr	r3, [sp, #16]
	ldr	r3, [r3, #16]
	mov	r0, r3
	bl	pwm_calculate_timer_frequency
	mov	r3, r0
	strb	r3, [sp, #43]
	.loc 5 884 28
	ldrb	r3, [sp, #43]
	strb	r3, [sp, #28]
	movs	r3, #0
	strb	r3, [sp, #29]
	movs	r3, #0
	strb	r3, [sp, #30]
	movs	r3, #7
	strb	r3, [sp, #31]
	.loc 5 889 61
	ldr	r3, [sp, #20]
	ldr	r3, [r3, #4]
	.loc 5 889 70
	ldrb	r3, [r3, #4]	@ zero_extendqisi2
	.loc 5 884 28
	str	r3, [sp, #32]
	.loc 5 891 45
	ldr	r3, [sp, #20]
	ldr	r3, [r3, #4]
	.loc 5 891 16
	add	r1, sp, #28
	ldr	r2, .L125+8
	mov	r0, r3
	bl	nrfx_timer_init
	str	r0, [sp, #44]
	.loc 5 893 8
	ldr	r3, [sp, #44]
	cmp	r3, #0
	beq	.L123
	.loc 5 895 9
	ldr	r0, [sp, #20]
	bl	pwm_dealloc
	.loc 5 896 16
	ldr	r3, [sp, #44]
	b	.L124
.L123:
	.loc 5 899 58
	ldr	r3, [sp, #20]
	ldr	r2, [r3, #4]
	.loc 5 899 22
	ldr	r3, [sp, #16]
	ldr	r3, [r3, #16]
	mov	r1, r3
	mov	r0, r2
	bl	nrfx_timer_us_to_ticks
	str	r0, [sp, #36]
	.loc 5 900 18
	ldr	r3, [sp, #48]
	ldr	r2, [sp, #36]
	str	r2, [r3, #24]
	.loc 5 901 35
	ldr	r3, [sp, #20]
	ldr	r3, [r3, #4]
	.loc 5 901 5
	mov	r0, r3
	bl	nrfx_timer_clear
	.loc 5 902 46
	ldr	r3, [sp, #20]
	ldr	r0, [r3, #4]
	.loc 5 902 5
	movs	r3, #1
	str	r3, [sp]
	movs	r3, #4
	ldr	r2, [sp, #36]
	movs	r1, #2
	bl	nrfx_timer_extended_compare
	.loc 5 904 49
	ldr	r3, [sp, #20]
	ldr	r3, [r3, #4]
	.loc 5 904 5
	movs	r1, #2
	mov	r0, r3
	bl	nrfx_timer_compare_int_disable
	.loc 5 906 28
	ldr	r3, [sp, #48]
	ldr	r2, [sp, #12]
	str	r2, [r3, #28]
	.loc 5 907 27
	ldr	r3, [sp, #20]
	ldr	r3, [r3, #4]
	.loc 5 907 36
	ldrb	r3, [r3, #4]	@ zero_extendqisi2
	mov	r1, r3
	.loc 5 907 51
	ldr	r2, .L125+12
	ldr	r3, [sp, #20]
	str	r3, [r2, r1, lsl #2]
	.loc 5 908 26
	ldr	r3, [sp, #20]
	ldr	r3, [r3, #4]
	.loc 5 908 35
	ldrb	r3, [r3, #4]	@ zero_extendqisi2
	mov	r2, r3
	.loc 5 908 50
	ldr	r3, .L125+16
	movs	r1, #255
	strb	r1, [r3, r2]
	.loc 5 909 17
	ldr	r3, [sp, #48]
	movs	r2, #1
	strb	r2, [r3, #33]
	.loc 5 911 12
	movs	r3, #0
.L124:
	.loc 5 912 1 discriminator 1
	mov	r0, r3
	add	sp, sp, #60
.LCFI73:
	@ sp needed
	ldr	pc, [sp], #4
.L126:
	.align	2
.L125:
	.word	-268431384
	.word	m_use_ppi_delay_workaround
	.word	pwm_ready_tick
	.word	m_instances
	.word	m_pwm_busy
.LFE283:
	.size	app_pwm_init, .-app_pwm_init
	.section	.text.app_pwm_enable,"ax",%progbits
	.align	1
	.global	app_pwm_enable
	.syntax unified
	.thumb
	.thumb_func
	.fpu softvfp
	.type	app_pwm_enable, %function
app_pwm_enable:
.LFB284:
	.loc 5 916 1
	@ args = 0, pretend = 0, frame = 24
	@ frame_needed = 0, uses_anonymous_args = 0
	push	{lr}
.LCFI74:
	sub	sp, sp, #28
.LCFI75:
	str	r0, [sp, #4]
	.loc 5 917 20
	ldr	r3, [sp, #4]
	ldr	r3, [r3]
	str	r3, [sp, #16]
.LBB9:
	.loc 5 921 19
	movs	r3, #0
	str	r3, [sp, #20]
	.loc 5 921 5
	b	.L128
.L130:
.LBB10:
	.loc 5 923 32
	ldr	r2, [sp, #20]
	mov	r3, r2
	lsls	r3, r3, #1
	add	r3, r3, r2
	lsls	r3, r3, #2
	ldr	r2, [sp, #16]
	add	r3, r3, r2
	str	r3, [sp, #12]
	.loc 5 924 39
	ldr	r3, [sp, #4]
	ldr	r3, [r3, #4]
	.loc 5 924 48
	ldrb	r3, [r3, #4]	@ zero_extendqisi2
	.loc 5 924 72
	ldr	r2, .L132
	lsls	r3, r3, #1
	add	r2, r2, r3
	ldr	r3, [sp, #20]
	add	r3, r3, r2
	movs	r2, #0
	strb	r2, [r3]
	.loc 5 925 20
	ldr	r3, [sp, #12]
	ldrb	r3, [r3, #11]	@ zero_extendqisi2
	.loc 5 925 12
	cmp	r3, #0
	beq	.L129
	.loc 5 927 13
	ldr	r3, [sp, #12]
	ldr	r0, [r3]
	.loc 5 927 62
	ldr	r3, [sp, #4]
	ldr	r1, [r3]
	ldr	r2, [sp, #20]
	mov	r3, r2
	lsls	r3, r3, #1
	add	r3, r3, r2
	lsls	r3, r3, #2
	add	r3, r3, r1
	adds	r3, r3, #10
	ldrb	r3, [r3]	@ zero_extendqisi2
	.loc 5 927 13
	cmp	r3, #0
	ite	eq
	moveq	r3, #1
	movne	r3, #0
	uxtb	r3, r3
	mov	r1, r3
	bl	nrfx_gpiote_out_task_force
	.loc 5 928 13
	ldr	r3, [sp, #12]
	ldr	r3, [r3]
	mov	r0, r3
	bl	nrfx_gpiote_out_task_enable
	.loc 5 929 33
	ldr	r3, [sp, #12]
	movs	r2, #0
	str	r2, [r3, #4]
.L129:
.LBE10:
	.loc 5 921 73 discriminator 2
	ldr	r3, [sp, #20]
	adds	r3, r3, #1
	str	r3, [sp, #20]
.L128:
	.loc 5 921 5 discriminator 1
	ldr	r3, [sp, #20]
	cmp	r3, #1
	bls	.L130
.LBE9:
	.loc 5 932 26
	ldr	r3, [sp, #4]
	ldr	r3, [r3, #4]
	.loc 5 932 35
	ldrb	r3, [r3, #4]	@ zero_extendqisi2
	mov	r2, r3
	.loc 5 932 50
	ldr	r3, .L132+4
	movs	r1, #255
	strb	r1, [r3, r2]
	.loc 5 934 32
	ldr	r3, [sp, #4]
	ldr	r3, [r3, #4]
	.loc 5 934 5
	ldr	r3, [r3]
	movs	r1, #1
	mov	r0, r3
	bl	pan73_workaround
	.loc 5 936 35
	ldr	r3, [sp, #4]
	ldr	r3, [r3, #4]
	.loc 5 936 5
	mov	r0, r3
	bl	nrfx_timer_clear
	.loc 5 937 36
	ldr	r3, [sp, #4]
	ldr	r3, [r3, #4]
	.loc 5 937 5
	mov	r0, r3
	bl	nrfx_timer_enable
	.loc 5 939 17
	ldr	r3, [sp, #16]
	movs	r2, #2
	strb	r2, [r3, #33]
	.loc 5 940 5
	nop
	.loc 5 941 1
	add	sp, sp, #28
.LCFI76:
	@ sp needed
	ldr	pc, [sp], #4
.L133:
	.align	2
.L132:
	.word	m_pwm_ready_counter
	.word	m_pwm_busy
.LFE284:
	.size	app_pwm_enable, .-app_pwm_enable
	.section	.text.app_pwm_disable,"ax",%progbits
	.align	1
	.global	app_pwm_disable
	.syntax unified
	.thumb
	.thumb_func
	.fpu softvfp
	.type	app_pwm_disable, %function
app_pwm_disable:
.LFB285:
	.loc 5 945 1
	@ args = 0, pretend = 0, frame = 24
	@ frame_needed = 0, uses_anonymous_args = 0
	push	{lr}
.LCFI77:
	sub	sp, sp, #28
.LCFI78:
	str	r0, [sp, #4]
	.loc 5 946 20
	ldr	r3, [sp, #4]
	ldr	r3, [r3]
	str	r3, [sp, #16]
	.loc 5 950 37
	ldr	r3, [sp, #4]
	ldr	r3, [r3, #4]
	.loc 5 950 5
	mov	r0, r3
	bl	nrfx_timer_disable
	.loc 5 951 5
	ldr	r0, [sp, #4]
	bl	pwm_irq_disable
	.loc 5 954 5
	ldr	r3, [sp, #16]
	ldrb	r3, [r3, #32]	@ zero_extendqisi2
	mov	r0, r3
	bl	nrfx_ppi_channel_disable
.LBB11:
	.loc 5 962 18
	movs	r3, #0
	strb	r3, [sp, #23]
	.loc 5 962 5
	b	.L135
.L139:
.LBB12:
	.loc 5 964 60
	ldrb	r2, [sp, #23]	@ zero_extendqisi2
	.loc 5 964 32
	mov	r3, r2
	lsls	r3, r3, #1
	add	r3, r3, r2
	lsls	r3, r3, #2
	ldr	r2, [sp, #16]
	add	r3, r3, r2
	str	r3, [sp, #12]
	.loc 5 965 20
	ldr	r3, [sp, #12]
	ldrb	r3, [r3, #11]	@ zero_extendqisi2
	.loc 5 965 12
	cmp	r3, #0
	beq	.L136
.LBB13:
	.loc 5 967 32
	ldr	r3, [sp, #4]
	ldr	r1, [r3]
	ldrb	r2, [sp, #23]	@ zero_extendqisi2
	mov	r3, r2
	lsls	r3, r3, #1
	add	r3, r3, r2
	lsls	r3, r3, #2
	add	r3, r3, r1
	adds	r3, r3, #10
	ldrb	r3, [r3]	@ zero_extendqisi2
	cmp	r3, #0
	ite	eq
	moveq	r3, #1
	movne	r3, #0
	uxtb	r3, r3
	.loc 5 967 21
	strb	r3, [sp, #11]
	.loc 5 968 16
	ldrb	r3, [sp, #11]	@ zero_extendqisi2
	cmp	r3, #0
	beq	.L137
	.loc 5 970 17
	ldr	r3, [sp, #12]
	ldr	r3, [r3]
	mov	r0, r3
	bl	nrf_gpio_pin_set
	b	.L138
.L137:
	.loc 5 974 17
	ldr	r3, [sp, #12]
	ldr	r3, [r3]
	mov	r0, r3
	bl	nrf_gpio_pin_clear
.L138:
	.loc 5 976 13
	ldr	r3, [sp, #12]
	ldr	r3, [r3]
	mov	r0, r3
	bl	nrfx_gpiote_out_task_disable
	.loc 5 977 13
	ldr	r3, [sp, #12]
	ldrb	r3, [r3, #8]	@ zero_extendqisi2
	mov	r0, r3
	bl	nrfx_ppi_channel_disable
	.loc 5 978 13
	ldr	r3, [sp, #12]
	ldrb	r3, [r3, #9]	@ zero_extendqisi2
	mov	r0, r3
	bl	nrfx_ppi_channel_disable
.L136:
.LBE13:
.LBE12:
	.loc 5 962 72 discriminator 2
	ldrb	r3, [sp, #23]
	adds	r3, r3, #1
	strb	r3, [sp, #23]
.L135:
	.loc 5 962 5 discriminator 1
	ldrb	r3, [sp, #23]	@ zero_extendqisi2
	cmp	r3, #1
	bls	.L139
.LBE11:
	.loc 5 982 32
	ldr	r3, [sp, #4]
	ldr	r3, [r3, #4]
	.loc 5 982 5
	ldr	r3, [r3]
	movs	r1, #0
	mov	r0, r3
	bl	pan73_workaround
	.loc 5 984 17
	ldr	r3, [sp, #16]
	movs	r2, #1
	strb	r2, [r3, #33]
	.loc 5 985 5
	nop
	.loc 5 986 1
	add	sp, sp, #28
.LCFI79:
	@ sp needed
	ldr	pc, [sp], #4
.LFE285:
	.size	app_pwm_disable, .-app_pwm_disable
	.section	.text.app_pwm_uninit,"ax",%progbits
	.align	1
	.global	app_pwm_uninit
	.syntax unified
	.thumb
	.thumb_func
	.fpu softvfp
	.type	app_pwm_uninit, %function
app_pwm_uninit:
.LFB286:
	.loc 5 990 1
	@ args = 0, pretend = 0, frame = 16
	@ frame_needed = 0, uses_anonymous_args = 0
	push	{lr}
.LCFI80:
	sub	sp, sp, #20
.LCFI81:
	str	r0, [sp, #4]
	.loc 5 991 20
	ldr	r3, [sp, #4]
	ldr	r3, [r3]
	str	r3, [sp, #12]
	.loc 5 993 13
	ldr	r3, [sp, #12]
	ldrb	r3, [r3, #33]	@ zero_extendqisi2
	.loc 5 993 8
	cmp	r3, #2
	bne	.L142
	.loc 5 995 9
	ldr	r0, [sp, #4]
	bl	app_pwm_disable
	b	.L143
.L142:
	.loc 5 997 18
	ldr	r3, [sp, #12]
	ldrb	r3, [r3, #33]	@ zero_extendqisi2
	.loc 5 997 13
	cmp	r3, #0
	bne	.L143
	.loc 5 999 16
	movs	r3, #8
	b	.L144
.L143:
	.loc 5 1001 5
	ldr	r0, [sp, #4]
	bl	pwm_dealloc
	.loc 5 1003 17
	ldr	r3, [sp, #12]
	movs	r2, #0
	strb	r2, [r3, #33]
	.loc 5 1004 12
	movs	r3, #0
.L144:
	.loc 5 1005 1
	mov	r0, r3
	add	sp, sp, #20
.LCFI82:
	@ sp needed
	ldr	pc, [sp], #4
.LFE286:
	.size	app_pwm_uninit, .-app_pwm_uninit
	.section	.debug_frame,"",%progbits
.Lframe0:
	.4byte	.LECIE0-.LSCIE0
.LSCIE0:
	.4byte	0xffffffff
	.byte	0x3
	.ascii	"\000"
	.uleb128 0x1
	.sleb128 -4
	.uleb128 0xe
	.byte	0xc
	.uleb128 0xd
	.uleb128 0
	.align	2
.LECIE0:
.LSFDE0:
	.4byte	.LEFDE0-.LASFDE0
.LASFDE0:
	.4byte	.Lframe0
	.4byte	.LFB124
	.4byte	.LFE124-.LFB124
	.align	2
.LEFDE0:
.LSFDE2:
	.4byte	.LEFDE2-.LASFDE2
.LASFDE2:
	.4byte	.Lframe0
	.4byte	.LFB160
	.4byte	.LFE160-.LFB160
	.byte	0x4
	.4byte	.LCFI0-.LFB160
	.byte	0xe
	.uleb128 0x8
	.byte	0x4
	.4byte	.LCFI1-.LCFI0
	.byte	0xe
	.uleb128 0
	.align	2
.LEFDE2:
.LSFDE4:
	.4byte	.LEFDE4-.LASFDE4
.LASFDE4:
	.4byte	.Lframe0
	.4byte	.LFB171
	.4byte	.LFE171-.LFB171
	.byte	0x4
	.4byte	.LCFI2-.LFB171
	.byte	0xe
	.uleb128 0x8
	.byte	0x4
	.4byte	.LCFI3-.LCFI2
	.byte	0xe
	.uleb128 0
	.align	2
.LEFDE4:
.LSFDE6:
	.4byte	.LEFDE6-.LASFDE6
.LASFDE6:
	.4byte	.Lframe0
	.4byte	.LFB173
	.4byte	.LFE173-.LFB173
	.byte	0x4
	.4byte	.LCFI4-.LFB173
	.byte	0xe
	.uleb128 0x8
	.byte	0x4
	.4byte	.LCFI5-.LCFI4
	.byte	0xe
	.uleb128 0
	.align	2
.LEFDE6:
.LSFDE8:
	.4byte	.LEFDE8-.LASFDE8
.LASFDE8:
	.4byte	.Lframe0
	.4byte	.LFB175
	.4byte	.LFE175-.LFB175
	.byte	0x4
	.4byte	.LCFI6-.LFB175
	.byte	0xe
	.uleb128 0x8
	.byte	0x4
	.4byte	.LCFI7-.LCFI6
	.byte	0xe
	.uleb128 0
	.align	2
.LEFDE8:
.LSFDE10:
	.4byte	.LEFDE10-.LASFDE10
.LASFDE10:
	.4byte	.Lframe0
	.4byte	.LFB177
	.4byte	.LFE177-.LFB177
	.byte	0x4
	.4byte	.LCFI8-.LFB177
	.byte	0xe
	.uleb128 0xc
	.byte	0x84
	.uleb128 0x3
	.byte	0x85
	.uleb128 0x2
	.byte	0x86
	.uleb128 0x1
	.byte	0x4
	.4byte	.LCFI9-.LCFI8
	.byte	0xe
	.uleb128 0x28
	.byte	0x4
	.4byte	.LCFI10-.LCFI9
	.byte	0xe
	.uleb128 0xc
	.byte	0x4
	.4byte	.LCFI11-.LCFI10
	.byte	0xc6
	.byte	0xc5
	.byte	0xc4
	.byte	0xe
	.uleb128 0
	.align	2
.LEFDE10:
.LSFDE12:
	.4byte	.LEFDE12-.LASFDE12
.LASFDE12:
	.4byte	.Lframe0
	.4byte	.LFB182
	.4byte	.LFE182-.LFB182
	.byte	0x4
	.4byte	.LCFI12-.LFB182
	.byte	0xe
	.uleb128 0x8
	.byte	0x84
	.uleb128 0x2
	.byte	0x8e
	.uleb128 0x1
	.byte	0x4
	.4byte	.LCFI13-.LCFI12
	.byte	0xe
	.uleb128 0x10
	.byte	0x4
	.4byte	.LCFI14-.LCFI13
	.byte	0xe
	.uleb128 0x8
	.align	2
.LEFDE12:
.LSFDE14:
	.4byte	.LEFDE14-.LASFDE14
.LASFDE14:
	.4byte	.Lframe0
	.4byte	.LFB183
	.4byte	.LFE183-.LFB183
	.byte	0x4
	.4byte	.LCFI15-.LFB183
	.byte	0xe
	.uleb128 0x4
	.byte	0x8e
	.uleb128 0x1
	.byte	0x4
	.4byte	.LCFI16-.LCFI15
	.byte	0xe
	.uleb128 0x10
	.byte	0x4
	.4byte	.LCFI17-.LCFI16
	.byte	0xe
	.uleb128 0x4
	.align	2
.LEFDE14:
.LSFDE16:
	.4byte	.LEFDE16-.LASFDE16
.LASFDE16:
	.4byte	.Lframe0
	.4byte	.LFB184
	.4byte	.LFE184-.LFB184
	.byte	0x4
	.4byte	.LCFI18-.LFB184
	.byte	0xe
	.uleb128 0x4
	.byte	0x8e
	.uleb128 0x1
	.byte	0x4
	.4byte	.LCFI19-.LCFI18
	.byte	0xe
	.uleb128 0x10
	.byte	0x4
	.4byte	.LCFI20-.LCFI19
	.byte	0xe
	.uleb128 0x4
	.align	2
.LEFDE16:
.LSFDE18:
	.4byte	.LEFDE18-.LASFDE18
.LASFDE18:
	.4byte	.Lframe0
	.4byte	.LFB234
	.4byte	.LFE234-.LFB234
	.byte	0x4
	.4byte	.LCFI21-.LFB234
	.byte	0xe
	.uleb128 0x8
	.byte	0x4
	.4byte	.LCFI22-.LCFI21
	.byte	0xe
	.uleb128 0
	.align	2
.LEFDE18:
.LSFDE20:
	.4byte	.LEFDE20-.LASFDE20
.LASFDE20:
	.4byte	.Lframe0
	.4byte	.LFB246
	.4byte	.LFE246-.LFB246
	.byte	0x4
	.4byte	.LCFI23-.LFB246
	.byte	0xe
	.uleb128 0x4
	.byte	0x8e
	.uleb128 0x1
	.byte	0x4
	.4byte	.LCFI24-.LCFI23
	.byte	0xe
	.uleb128 0x18
	.byte	0x4
	.4byte	.LCFI25-.LCFI24
	.byte	0xe
	.uleb128 0x4
	.align	2
.LEFDE20:
.LSFDE22:
	.4byte	.LEFDE22-.LASFDE22
.LASFDE22:
	.4byte	.Lframe0
	.4byte	.LFB247
	.4byte	.LFE247-.LFB247
	.byte	0x4
	.4byte	.LCFI26-.LFB247
	.byte	0xe
	.uleb128 0x4
	.byte	0x8e
	.uleb128 0x1
	.byte	0x4
	.4byte	.LCFI27-.LCFI26
	.byte	0xe
	.uleb128 0x18
	.byte	0x4
	.4byte	.LCFI28-.LCFI27
	.byte	0xe
	.uleb128 0x4
	.align	2
.LEFDE22:
.LSFDE24:
	.4byte	.LEFDE24-.LASFDE24
.LASFDE24:
	.4byte	.Lframe0
	.4byte	.LFB263
	.4byte	.LFE263-.LFB263
	.byte	0x4
	.4byte	.LCFI29-.LFB263
	.byte	0xe
	.uleb128 0x8
	.byte	0x4
	.4byte	.LCFI30-.LCFI29
	.byte	0xe
	.uleb128 0
	.align	2
.LEFDE24:
.LSFDE26:
	.4byte	.LEFDE26-.LASFDE26
.LASFDE26:
	.4byte	.Lframe0
	.4byte	.LFB264
	.4byte	.LFE264-.LFB264
	.byte	0x4
	.4byte	.LCFI31-.LFB264
	.byte	0xe
	.uleb128 0x8
	.byte	0x4
	.4byte	.LCFI32-.LCFI31
	.byte	0xe
	.uleb128 0
	.align	2
.LEFDE26:
.LSFDE28:
	.4byte	.LEFDE28-.LASFDE28
.LASFDE28:
	.4byte	.Lframe0
	.4byte	.LFB269
	.4byte	.LFE269-.LFB269
	.byte	0x4
	.4byte	.LCFI33-.LFB269
	.byte	0xe
	.uleb128 0x8
	.byte	0x4
	.4byte	.LCFI34-.LCFI33
	.byte	0xe
	.uleb128 0
	.align	2
.LEFDE28:
.LSFDE30:
	.4byte	.LEFDE30-.LASFDE30
.LASFDE30:
	.4byte	.Lframe0
	.4byte	.LFB270
	.4byte	.LFE270-.LFB270
	.byte	0x4
	.4byte	.LCFI35-.LFB270
	.byte	0xe
	.uleb128 0x4
	.byte	0x8e
	.uleb128 0x1
	.byte	0x4
	.4byte	.LCFI36-.LCFI35
	.byte	0xe
	.uleb128 0x18
	.byte	0x4
	.4byte	.LCFI37-.LCFI36
	.byte	0xe
	.uleb128 0x4
	.align	2
.LEFDE30:
.LSFDE32:
	.4byte	.LEFDE32-.LASFDE32
.LASFDE32:
	.4byte	.Lframe0
	.4byte	.LFB271
	.4byte	.LFE271-.LFB271
	.byte	0x4
	.4byte	.LCFI38-.LFB271
	.byte	0xe
	.uleb128 0x4
	.byte	0x8e
	.uleb128 0x1
	.byte	0x4
	.4byte	.LCFI39-.LCFI38
	.byte	0xe
	.uleb128 0x10
	.byte	0x4
	.4byte	.LCFI40-.LCFI39
	.byte	0xe
	.uleb128 0x4
	.align	2
.LEFDE32:
.LSFDE34:
	.4byte	.LEFDE34-.LASFDE34
.LASFDE34:
	.4byte	.Lframe0
	.4byte	.LFB272
	.4byte	.LFE272-.LFB272
	.byte	0x4
	.4byte	.LCFI41-.LFB272
	.byte	0xe
	.uleb128 0x4
	.byte	0x8e
	.uleb128 0x1
	.byte	0x4
	.4byte	.LCFI42-.LCFI41
	.byte	0xe
	.uleb128 0x10
	.byte	0x4
	.4byte	.LCFI43-.LCFI42
	.byte	0xe
	.uleb128 0x4
	.align	2
.LEFDE34:
.LSFDE36:
	.4byte	.LEFDE36-.LASFDE36
.LASFDE36:
	.4byte	.Lframe0
	.4byte	.LFB273
	.4byte	.LFE273-.LFB273
	.byte	0x4
	.4byte	.LCFI44-.LFB273
	.byte	0xe
	.uleb128 0x4
	.byte	0x8e
	.uleb128 0x1
	.byte	0x4
	.4byte	.LCFI45-.LCFI44
	.byte	0xe
	.uleb128 0x20
	.byte	0x4
	.4byte	.LCFI46-.LCFI45
	.byte	0xe
	.uleb128 0x4
	.align	2
.LEFDE36:
.LSFDE38:
	.4byte	.LEFDE38-.LASFDE38
.LASFDE38:
	.4byte	.Lframe0
	.4byte	.LFB274
	.4byte	.LFE274-.LFB274
	.byte	0x4
	.4byte	.LCFI47-.LFB274
	.byte	0xe
	.uleb128 0x4
	.byte	0x8e
	.uleb128 0x1
	.byte	0x4
	.4byte	.LCFI48-.LCFI47
	.byte	0xe
	.uleb128 0x18
	.byte	0x4
	.4byte	.LCFI49-.LCFI48
	.byte	0xe
	.uleb128 0x4
	.align	2
.LEFDE38:
.LSFDE40:
	.4byte	.LEFDE40-.LASFDE40
.LASFDE40:
	.4byte	.Lframe0
	.4byte	.LFB275
	.4byte	.LFE275-.LFB275
	.byte	0x4
	.4byte	.LCFI50-.LFB275
	.byte	0xe
	.uleb128 0xc
	.byte	0x84
	.uleb128 0x3
	.byte	0x85
	.uleb128 0x2
	.byte	0x8e
	.uleb128 0x1
	.byte	0x4
	.4byte	.LCFI51-.LCFI50
	.byte	0xe
	.uleb128 0x28
	.byte	0x4
	.4byte	.LCFI52-.LCFI51
	.byte	0xe
	.uleb128 0xc
	.align	2
.LEFDE40:
.LSFDE42:
	.4byte	.LEFDE42-.LASFDE42
.LASFDE42:
	.4byte	.Lframe0
	.4byte	.LFB276
	.4byte	.LFE276-.LFB276
	.byte	0x4
	.4byte	.LCFI53-.LFB276
	.byte	0xe
	.uleb128 0x4
	.byte	0x8e
	.uleb128 0x1
	.byte	0x4
	.4byte	.LCFI54-.LCFI53
	.byte	0xe
	.uleb128 0x18
	.byte	0x4
	.4byte	.LCFI55-.LCFI54
	.byte	0xe
	.uleb128 0x4
	.align	2
.LEFDE42:
.LSFDE44:
	.4byte	.LEFDE44-.LASFDE44
.LASFDE44:
	.4byte	.Lframe0
	.4byte	.LFB277
	.4byte	.LFE277-.LFB277
	.byte	0x4
	.4byte	.LCFI56-.LFB277
	.byte	0xe
	.uleb128 0x10
	.byte	0x4
	.4byte	.LCFI57-.LCFI56
	.byte	0xe
	.uleb128 0
	.align	2
.LEFDE44:
.LSFDE46:
	.4byte	.LEFDE46-.LASFDE46
.LASFDE46:
	.4byte	.Lframe0
	.4byte	.LFB278
	.4byte	.LFE278-.LFB278
	.byte	0x4
	.4byte	.LCFI58-.LFB278
	.byte	0xe
	.uleb128 0x10
	.byte	0x4
	.4byte	.LCFI59-.LCFI58
	.byte	0xe
	.uleb128 0
	.align	2
.LEFDE46:
.LSFDE48:
	.4byte	.LEFDE48-.LASFDE48
.LASFDE48:
	.4byte	.Lframe0
	.4byte	.LFB279
	.4byte	.LFE279-.LFB279
	.byte	0x4
	.4byte	.LCFI60-.LFB279
	.byte	0xe
	.uleb128 0x4
	.byte	0x8e
	.uleb128 0x1
	.byte	0x4
	.4byte	.LCFI61-.LCFI60
	.byte	0xe
	.uleb128 0x18
	.byte	0x4
	.4byte	.LCFI62-.LCFI61
	.byte	0xe
	.uleb128 0x4
	.align	2
.LEFDE48:
.LSFDE50:
	.4byte	.LEFDE50-.LASFDE50
.LASFDE50:
	.4byte	.Lframe0
	.4byte	.LFB280
	.4byte	.LFE280-.LFB280
	.byte	0x4
	.4byte	.LCFI63-.LFB280
	.byte	0xe
	.uleb128 0x8
	.byte	0x84
	.uleb128 0x2
	.byte	0x8e
	.uleb128 0x1
	.byte	0x4
	.4byte	.LCFI64-.LCFI63
	.byte	0xe
	.uleb128 0x18
	.byte	0x4
	.4byte	.LCFI65-.LCFI64
	.byte	0xe
	.uleb128 0x8
	.align	2
.LEFDE50:
.LSFDE52:
	.4byte	.LEFDE52-.LASFDE52
.LASFDE52:
	.4byte	.Lframe0
	.4byte	.LFB281
	.4byte	.LFE281-.LFB281
	.byte	0x4
	.4byte	.LCFI66-.LFB281
	.byte	0xe
	.uleb128 0x8
	.byte	0x84
	.uleb128 0x2
	.byte	0x8e
	.uleb128 0x1
	.byte	0x4
	.4byte	.LCFI67-.LCFI66
	.byte	0xe
	.uleb128 0x38
	.byte	0x4
	.4byte	.LCFI68-.LCFI67
	.byte	0xe
	.uleb128 0x8
	.align	2
.LEFDE52:
.LSFDE54:
	.4byte	.LEFDE54-.LASFDE54
.LASFDE54:
	.4byte	.Lframe0
	.4byte	.LFB282
	.4byte	.LFE282-.LFB282
	.byte	0x4
	.4byte	.LCFI69-.LFB282
	.byte	0xe
	.uleb128 0x10
	.byte	0x4
	.4byte	.LCFI70-.LCFI69
	.byte	0xe
	.uleb128 0
	.align	2
.LEFDE54:
.LSFDE56:
	.4byte	.LEFDE56-.LASFDE56
.LASFDE56:
	.4byte	.Lframe0
	.4byte	.LFB283
	.4byte	.LFE283-.LFB283
	.byte	0x4
	.4byte	.LCFI71-.LFB283
	.byte	0xe
	.uleb128 0x4
	.byte	0x8e
	.uleb128 0x1
	.byte	0x4
	.4byte	.LCFI72-.LCFI71
	.byte	0xe
	.uleb128 0x40
	.byte	0x4
	.4byte	.LCFI73-.LCFI72
	.byte	0xe
	.uleb128 0x4
	.align	2
.LEFDE56:
.LSFDE58:
	.4byte	.LEFDE58-.LASFDE58
.LASFDE58:
	.4byte	.Lframe0
	.4byte	.LFB284
	.4byte	.LFE284-.LFB284
	.byte	0x4
	.4byte	.LCFI74-.LFB284
	.byte	0xe
	.uleb128 0x4
	.byte	0x8e
	.uleb128 0x1
	.byte	0x4
	.4byte	.LCFI75-.LCFI74
	.byte	0xe
	.uleb128 0x20
	.byte	0x4
	.4byte	.LCFI76-.LCFI75
	.byte	0xe
	.uleb128 0x4
	.align	2
.LEFDE58:
.LSFDE60:
	.4byte	.LEFDE60-.LASFDE60
.LASFDE60:
	.4byte	.Lframe0
	.4byte	.LFB285
	.4byte	.LFE285-.LFB285
	.byte	0x4
	.4byte	.LCFI77-.LFB285
	.byte	0xe
	.uleb128 0x4
	.byte	0x8e
	.uleb128 0x1
	.byte	0x4
	.4byte	.LCFI78-.LCFI77
	.byte	0xe
	.uleb128 0x20
	.byte	0x4
	.4byte	.LCFI79-.LCFI78
	.byte	0xe
	.uleb128 0x4
	.align	2
.LEFDE60:
.LSFDE62:
	.4byte	.LEFDE62-.LASFDE62
.LASFDE62:
	.4byte	.Lframe0
	.4byte	.LFB286
	.4byte	.LFE286-.LFB286
	.byte	0x4
	.4byte	.LCFI80-.LFB286
	.byte	0xe
	.uleb128 0x4
	.byte	0x8e
	.uleb128 0x1
	.byte	0x4
	.4byte	.LCFI81-.LCFI80
	.byte	0xe
	.uleb128 0x18
	.byte	0x4
	.4byte	.LCFI82-.LCFI81
	.byte	0xe
	.uleb128 0x4
	.align	2
.LEFDE62:
	.text
.Letext0:
	.file 6 "C:/gu/arm_segger_embedded_studio_v420a_win_x64_nordic/include/stdint.h"
	.file 7 "C:/gu/arm_segger_embedded_studio_v420a_win_x64_nordic/include/__crossworks.h"
	.file 8 "./../../../../../../../components/libraries/util/sdk_errors.h"
	.file 9 "./../../../../../../../components/toolchain/cmsis/include/core_cm4.h"
	.file 10 "./../../../../../../../modules/nrfx/mdk/system_nrf52840.h"
	.file 11 "./../../../../../../../modules/nrfx/mdk/nrf52840.h"
	.file 12 "./../../../../../../../components/libraries/util/app_util.h"
	.file 13 "./../../../../../../../modules/nrfx/drivers/nrfx_common.h"
	.file 14 "C:/gu/arm_segger_embedded_studio_v420a_win_x64_nordic/include/stdio.h"
	.file 15 "./../../../../../../../components/libraries/util/app_util_platform.h"
	.file 16 "./../../../../../../../integration/nrfx/legacy/nrf_drv_timer.h"
	.file 17 "./../../../../../../../modules/nrfx/hal/nrf_ppi.h"
	.file 18 "C:\\Users\\BertLenovo\\Downloads\\nRF5_2\\components\\libraries\\pwm\\app_pwm.h"
	.file 19 "./../../../../../../../modules/nrfx/hal/nrf_gpiote.h"
	.file 20 "./../../../../../../../modules/nrfx/drivers/include/nrfx_gpiote.h"
	.file 21 "./../../../../../../../integration/nrfx/legacy/nrf_drv_gpiote.h"