	.cpu cortex-m4
	.eabi_attribute 20, 1
	.eabi_attribute 21, 1
	.eabi_attribute 23, 3
	.eabi_attribute 24, 1
	.eabi_attribute 25, 1
	.eabi_attribute 26, 1
	.eabi_attribute 30, 6
	.eabi_attribute 34, 1
	.eabi_attribute 18, 4
	.file	"nrfx_uarte.c"
	.text
.Ltext0:
	.section	.text.NVIC_EnableIRQ,"ax",%progbits
	.align	1
	.syntax unified
	.thumb
	.thumb_func
	.fpu softvfp
	.type	NVIC_EnableIRQ, %function
NVIC_EnableIRQ:
.LFB108:
	.file 1 "./../../../../../../../components/toolchain/cmsis/include/core_cm4.h"
	.loc 1 1627 1
	@ args = 0, pretend = 0, frame = 8
	@ frame_needed = 0, uses_anonymous_args = 0
	@ link register save eliminated.
	sub	sp, sp, #8
.LCFI0:
	mov	r3, r0
	strb	r3, [sp, #7]
	.loc 1 1628 97
	ldrb	r3, [sp, #7]	@ zero_extendqisi2
	and	r2, r3, #31
	.loc 1 1628 7
	ldr	r1, .L2
	.loc 1 1628 16
	ldrsb	r3, [sp, #7]
	.loc 1 1628 41
	lsrs	r3, r3, #5
	.loc 1 1628 67
	movs	r0, #1
	lsl	r2, r0, r2
	.loc 1 1628 50
	str	r2, [r1, r3, lsl #2]
	.loc 1 1629 1
	nop
	add	sp, sp, #8
.LCFI1:
	@ sp needed
	bx	lr
.L3:
	.align	2
.L2:
	.word	-536813312
.LFE108:
	.size	NVIC_EnableIRQ, .-NVIC_EnableIRQ
	.section	.text.NVIC_DisableIRQ,"ax",%progbits
	.align	1
	.syntax unified
	.thumb
	.thumb_func
	.fpu softvfp
	.type	NVIC_DisableIRQ, %function
NVIC_DisableIRQ:
.LFB109:
	.loc 1 1638 1
	@ args = 0, pretend = 0, frame = 8
	@ frame_needed = 0, uses_anonymous_args = 0
	@ link register save eliminated.
	sub	sp, sp, #8
.LCFI2:
	mov	r3, r0
	strb	r3, [sp, #7]
	.loc 1 1639 97
	ldrb	r3, [sp, #7]	@ zero_extendqisi2
	and	r2, r3, #31
	.loc 1 1639 7
	ldr	r1, .L5
	.loc 1 1639 16
	ldrsb	r3, [sp, #7]
	.loc 1 1639 41
	lsrs	r3, r3, #5
	.loc 1 1639 67
	movs	r0, #1
	lsl	r2, r0, r2
	.loc 1 1639 50
	adds	r3, r3, #32
	str	r2, [r1, r3, lsl #2]
	.loc 1 1640 1
	nop
	add	sp, sp, #8
.LCFI3:
	@ sp needed
	bx	lr
.L6:
	.align	2
.L5:
	.word	-536813312
.LFE109:
	.size	NVIC_DisableIRQ, .-NVIC_DisableIRQ
	.section	.text.NVIC_SetPriority,"ax",%progbits
	.align	1
	.syntax unified
	.thumb
	.thumb_func
	.fpu softvfp
	.type	NVIC_SetPriority, %function
NVIC_SetPriority:
.LFB114:
	.loc 1 1699 1
	@ args = 0, pretend = 0, frame = 8
	@ frame_needed = 0, uses_anonymous_args = 0
	@ link register save eliminated.
	sub	sp, sp, #8
.LCFI4:
	mov	r3, r0
	str	r1, [sp]
	strb	r3, [sp, #7]
	.loc 1 1700 6
	ldrsb	r3, [sp, #7]
	cmp	r3, #0
	bge	.L8
	.loc 1 1702 57
	ldr	r3, [sp]
	uxtb	r2, r3
	.loc 1 1702 8
	ldr	r1, .L11
	.loc 1 1702 41
	ldrb	r3, [sp, #7]	@ zero_extendqisi2
	and	r3, r3, #15
	.loc 1 1702 49
	subs	r3, r3, #4
	.loc 1 1702 57
	lsls	r2, r2, #5
	uxtb	r2, r2
	.loc 1 1702 55
	add	r3, r3, r1
	strb	r2, [r3, #24]
	.loc 1 1708 1
	b	.L10
.L8:
	.loc 1 1706 57
	ldr	r3, [sp]
	uxtb	r2, r3
	.loc 1 1706 9
	ldr	r1, .L11+4
	.loc 1 1706 15
	ldrsb	r3, [sp, #7]
	.loc 1 1706 57
	lsls	r2, r2, #5
	uxtb	r2, r2
	.loc 1 1706 55
	add	r3, r3, r1
	strb	r2, [r3, #768]
.L10:
	.loc 1 1708 1
	nop
	add	sp, sp, #8
.LCFI5:
	@ sp needed
	bx	lr
.L12:
	.align	2
.L11:
	.word	-536810240
	.word	-536813312
.LFE114:
	.size	NVIC_SetPriority, .-NVIC_SetPriority
	.section	.text.nrfx_is_in_ram,"ax",%progbits
	.align	1
	.syntax unified
	.thumb
	.thumb_func
	.fpu softvfp
	.type	nrfx_is_in_ram, %function
nrfx_is_in_ram:
.LFB124:
	.file 2 "./../../../../../../../modules/nrfx/drivers/nrfx_common.h"
	.loc 2 303 1
	@ args = 0, pretend = 0, frame = 8
	@ frame_needed = 0, uses_anonymous_args = 0
	@ link register save eliminated.
	sub	sp, sp, #8
.LCFI6:
	str	r0, [sp, #4]
	.loc 2 304 15
	ldr	r3, [sp, #4]
	.loc 2 304 35
	and	r3, r3, #-536870912
	.loc 2 304 50
	cmp	r3, #536870912
	ite	eq
	moveq	r3, #1
	movne	r3, #0
	uxtb	r3, r3
	.loc 2 305 1
	mov	r0, r3
	add	sp, sp, #8
.LCFI7:
	@ sp needed
	bx	lr
.LFE124:
	.size	nrfx_is_in_ram, .-nrfx_is_in_ram
	.section	.text.nrfx_get_irq_number,"ax",%progbits
	.align	1
	.syntax unified
	.thumb
	.thumb_func
	.fpu softvfp
	.type	nrfx_get_irq_number, %function
nrfx_get_irq_number:
.LFB126:
	.loc 2 313 1
	@ args = 0, pretend = 0, frame = 8
	@ frame_needed = 0, uses_anonymous_args = 0
	@ link register save eliminated.
	sub	sp, sp, #8
.LCFI8:
	str	r0, [sp, #4]
	.loc 2 314 23
	ldr	r3, [sp, #4]
	lsrs	r3, r3, #12
	.loc 2 314 12
	sxtb	r3, r3
	.loc 2 315 1
	mov	r0, r3
	add	sp, sp, #8
.LCFI9:
	@ sp needed
	bx	lr
.LFE126:
	.size	nrfx_get_irq_number, .-nrfx_get_irq_number
	.section	.text.sd_mbr_command,"ax",%progbits
	.align	1
	.syntax unified
	.thumb
	.thumb_func
	.fpu softvfp
	.type	sd_mbr_command, %function
sd_mbr_command:
.LFB129:
	.file 3 "./../../../../../../../components/softdevice/mbr/nrf52840/headers/nrf_mbr.h"
	.loc 3 257 1
	@ Naked Function: prologue and epilogue provided by programmer.
	@ args = 0, pretend = 0, frame = 0
	@ frame_needed = 0, uses_anonymous_args = 0
	.loc 3 257 1
	.syntax unified
@ 257 "./../../../../../../../components/softdevice/mbr/nrf52840/headers/nrf_mbr.h" 1
	svc #24
bx r14
@ 0 "" 2
	.thumb
	.syntax unified
	nop
	mov	r0, r3
.LFE129:
	.size	sd_mbr_command, .-sd_mbr_command
	.section	.text._NRFX_IRQ_PRIORITY_SET,"ax",%progbits
	.align	1
	.syntax unified
	.thumb
	.thumb_func
	.fpu softvfp
	.type	_NRFX_IRQ_PRIORITY_SET, %function
_NRFX_IRQ_PRIORITY_SET:
.LFB148:
	.file 4 "./../../../../../../../integration/nrfx/nrfx_glue.h"
	.loc 4 106 1
	@ args = 0, pretend = 0, frame = 8
	@ frame_needed = 0, uses_anonymous_args = 0
	push	{lr}
.LCFI10:
	sub	sp, sp, #12
.LCFI11:
	mov	r3, r0
	mov	r2, r1
	strb	r3, [sp, #7]
	mov	r3, r2
	strb	r3, [sp, #6]
	.loc 4 108 5
	ldrb	r2, [sp, #6]	@ zero_extendqisi2
	ldrsb	r3, [sp, #7]
	mov	r1, r2
	mov	r0, r3
	bl	NVIC_SetPriority
	.loc 4 109 1
	nop
	add	sp, sp, #12
.LCFI12:
	@ sp needed
	ldr	pc, [sp], #4
.LFE148:
	.size	_NRFX_IRQ_PRIORITY_SET, .-_NRFX_IRQ_PRIORITY_SET
	.section	.text._NRFX_IRQ_ENABLE,"ax",%progbits
	.align	1
	.syntax unified
	.thumb
	.thumb_func
	.fpu softvfp
	.type	_NRFX_IRQ_ENABLE, %function
_NRFX_IRQ_ENABLE:
.LFB149:
	.loc 4 118 1
	@ args = 0, pretend = 0, frame = 8
	@ frame_needed = 0, uses_anonymous_args = 0
	push	{lr}
.LCFI13:
	sub	sp, sp, #12
.LCFI14:
	mov	r3, r0
	strb	r3, [sp, #7]
	.loc 4 119 5
	ldrsb	r3, [sp, #7]
	mov	r0, r3
	bl	NVIC_EnableIRQ
	.loc 4 120 1
	nop
	add	sp, sp, #12
.LCFI15:
	@ sp needed
	ldr	pc, [sp], #4
.LFE149:
	.size	_NRFX_IRQ_ENABLE, .-_NRFX_IRQ_ENABLE
	.section	.text._NRFX_IRQ_DISABLE,"ax",%progbits
	.align	1
	.syntax unified
	.thumb
	.thumb_func
	.fpu softvfp
	.type	_NRFX_IRQ_DISABLE, %function
_NRFX_IRQ_DISABLE:
.LFB151:
	.loc 4 143 1
	@ args = 0, pretend = 0, frame = 8
	@ frame_needed = 0, uses_anonymous_args = 0
	push	{lr}
.LCFI16:
	sub	sp, sp, #12
.LCFI17:
	mov	r3, r0
	strb	r3, [sp, #7]
	.loc 4 144 5
	ldrsb	r3, [sp, #7]
	mov	r0, r3
	bl	NVIC_DisableIRQ
	.loc 4 145 1
	nop
	add	sp, sp, #12
.LCFI18:
	@ sp needed
	ldr	pc, [sp], #4
.LFE151:
	.size	_NRFX_IRQ_DISABLE, .-_NRFX_IRQ_DISABLE
	.section	.text.nrf_uarte_event_clear,"ax",%progbits
	.align	1
	.syntax unified
	.thumb
	.thumb_func
	.fpu softvfp
	.type	nrf_uarte_event_clear, %function
nrf_uarte_event_clear:
.LFB156:
	.file 5 "./../../../../../../../modules/nrfx/hal/nrf_uarte.h"
	.loc 5 466 1
	@ args = 0, pretend = 0, frame = 16
	@ frame_needed = 0, uses_anonymous_args = 0
	@ link register save eliminated.
	sub	sp, sp, #16
.LCFI19:
	str	r0, [sp, #4]
	mov	r3, r1
	strh	r3, [sp, #2]	@ movhi
	.loc 5 467 48
	ldrh	r3, [sp, #2]
	.loc 5 467 7
	ldr	r2, [sp, #4]
	add	r3, r3, r2
	.loc 5 467 66
	movs	r2, #0
	str	r2, [r3]
	.loc 5 469 74
	ldrh	r3, [sp, #2]
	.loc 5 469 33
	ldr	r2, [sp, #4]
	add	r3, r3, r2
	.loc 5 469 31
	ldr	r3, [r3]
	.loc 5 469 23
	str	r3, [sp, #12]
	.loc 5 470 5
	ldr	r3, [sp, #12]
	.loc 5 473 1
	nop
	add	sp, sp, #16
.LCFI20:
	@ sp needed
	bx	lr
.LFE156:
	.size	nrf_uarte_event_clear, .-nrf_uarte_event_clear
	.section	.text.nrf_uarte_event_check,"ax",%progbits
	.align	1
	.syntax unified
	.thumb
	.thumb_func
	.fpu softvfp
	.type	nrf_uarte_event_check, %function
nrf_uarte_event_check:
.LFB157:
	.loc 5 476 1
	@ args = 0, pretend = 0, frame = 8
	@ frame_needed = 0, uses_anonymous_args = 0
	@ link register save eliminated.
	sub	sp, sp, #8
.LCFI21:
	str	r0, [sp, #4]
	mov	r3, r1
	strh	r3, [sp, #2]	@ movhi
	.loc 5 477 60
	ldrh	r3, [sp, #2]
	.loc 5 477 19
	ldr	r2, [sp, #4]
	add	r3, r3, r2
	.loc 5 477 18
	ldr	r3, [r3]
	.loc 5 477 12
	cmp	r3, #0
	ite	ne
	movne	r3, #1
	moveq	r3, #0
	uxtb	r3, r3
	.loc 5 478 1
	mov	r0, r3
	add	sp, sp, #8
.LCFI22:
	@ sp needed
	bx	lr
.LFE157:
	.size	nrf_uarte_event_check, .-nrf_uarte_event_check
	.section	.text.nrf_uarte_shorts_enable,"ax",%progbits
	.align	1
	.syntax unified
	.thumb
	.thumb_func
	.fpu softvfp
	.type	nrf_uarte_shorts_enable, %function
nrf_uarte_shorts_enable:
.LFB159:
	.loc 5 487 1
	@ args = 0, pretend = 0, frame = 8
	@ frame_needed = 0, uses_anonymous_args = 0
	@ link register save eliminated.
	sub	sp, sp, #8
.LCFI23:
	str	r0, [sp, #4]
	str	r1, [sp]
	.loc 5 488 19
	ldr	r3, [sp, #4]
	ldr	r2, [r3, #512]
	ldr	r3, [sp]
	orrs	r2, r2, r3
	ldr	r3, [sp, #4]
	str	r2, [r3, #512]
	.loc 5 489 1
	nop
	add	sp, sp, #8
.LCFI24:
	@ sp needed
	bx	lr
.LFE159:
	.size	nrf_uarte_shorts_enable, .-nrf_uarte_shorts_enable
	.section	.text.nrf_uarte_shorts_disable,"ax",%progbits
	.align	1
	.syntax unified
	.thumb
	.thumb_func
	.fpu softvfp
	.type	nrf_uarte_shorts_disable, %function
nrf_uarte_shorts_disable:
.LFB160:
	.loc 5 492 1
	@ args = 0, pretend = 0, frame = 8
	@ frame_needed = 0, uses_anonymous_args = 0
	@ link register save eliminated.
	sub	sp, sp, #8
.LCFI25:
	str	r0, [sp, #4]
	str	r1, [sp]
	.loc 5 493 19
	ldr	r3, [sp, #4]
	ldr	r2, [r3, #512]
	.loc 5 493 22
	ldr	r3, [sp]
	mvns	r3, r3
	.loc 5 493 19
	ands	r2, r2, r3
	ldr	r3, [sp, #4]
	str	r2, [r3, #512]
	.loc 5 494 1
	nop
	add	sp, sp, #8
.LCFI26:
	@ sp needed
	bx	lr
.LFE160:
	.size	nrf_uarte_shorts_disable, .-nrf_uarte_shorts_disable
	.section	.text.nrf_uarte_int_enable,"ax",%progbits
	.align	1
	.syntax unified
	.thumb
	.thumb_func
	.fpu softvfp
	.type	nrf_uarte_int_enable, %function
nrf_uarte_int_enable:
.LFB161:
	.loc 5 497 1
	@ args = 0, pretend = 0, frame = 8
	@ frame_needed = 0, uses_anonymous_args = 0
	@ link register save eliminated.
	sub	sp, sp, #8
.LCFI27:
	str	r0, [sp, #4]
	str	r1, [sp]
	.loc 5 498 21
	ldr	r3, [sp, #4]
	ldr	r2, [sp]
	str	r2, [r3, #772]
	.loc 5 499 1
	nop
	add	sp, sp, #8
.LCFI28:
	@ sp needed
	bx	lr
.LFE161:
	.size	nrf_uarte_int_enable, .-nrf_uarte_int_enable
	.section	.text.nrf_uarte_int_disable,"ax",%progbits
	.align	1
	.syntax unified
	.thumb
	.thumb_func
	.fpu softvfp
	.type	nrf_uarte_int_disable, %function
nrf_uarte_int_disable:
.LFB163:
	.loc 5 507 1
	@ args = 0, pretend = 0, frame = 8
	@ frame_needed = 0, uses_anonymous_args = 0
	@ link register save eliminated.
	sub	sp, sp, #8
.LCFI29:
	str	r0, [sp, #4]
	str	r1, [sp]
	.loc 5 508 21
	ldr	r3, [sp, #4]
	ldr	r2, [sp]
	str	r2, [r3, #776]
	.loc 5 509 1
	nop
	add	sp, sp, #8
.LCFI30:
	@ sp needed
	bx	lr
.LFE163:
	.size	nrf_uarte_int_disable, .-nrf_uarte_int_disable
	.section	.text.nrf_uarte_errorsrc_get_and_clear,"ax",%progbits
	.align	1
	.syntax unified
	.thumb
	.thumb_func
	.fpu softvfp
	.type	nrf_uarte_errorsrc_get_and_clear, %function
nrf_uarte_errorsrc_get_and_clear:
.LFB164:
	.loc 5 542 1
	@ args = 0, pretend = 0, frame = 16
	@ frame_needed = 0, uses_anonymous_args = 0
	@ link register save eliminated.
	sub	sp, sp, #16
.LCFI31:
	str	r0, [sp, #4]
	.loc 5 543 14
	ldr	r3, [sp, #4]
	ldr	r3, [r3, #1152]
	str	r3, [sp, #12]
	.loc 5 544 21
	ldr	r3, [sp, #4]
	ldr	r2, [sp, #12]
	str	r2, [r3, #1152]
	.loc 5 545 12
	ldr	r3, [sp, #12]
	.loc 5 546 1
	mov	r0, r3
	add	sp, sp, #16
.LCFI32:
	@ sp needed
	bx	lr
.LFE164:
	.size	nrf_uarte_errorsrc_get_and_clear, .-nrf_uarte_errorsrc_get_and_clear
	.section	.text.nrf_uarte_enable,"ax",%progbits
	.align	1
	.syntax unified
	.thumb
	.thumb_func
	.fpu softvfp
	.type	nrf_uarte_enable, %function
nrf_uarte_enable:
.LFB165:
	.loc 5 549 1
	@ args = 0, pretend = 0, frame = 8
	@ frame_needed = 0, uses_anonymous_args = 0
	@ link register save eliminated.
	sub	sp, sp, #8
.LCFI33:
	str	r0, [sp, #4]
	.loc 5 550 19
	ldr	r3, [sp, #4]
	movs	r2, #8
	str	r2, [r3, #1280]
	.loc 5 551 1
	nop
	add	sp, sp, #8
.LCFI34:
	@ sp needed
	bx	lr
.LFE165:
	.size	nrf_uarte_enable, .-nrf_uarte_enable
	.section	.text.nrf_uarte_disable,"ax",%progbits
	.align	1
	.syntax unified
	.thumb
	.thumb_func
	.fpu softvfp
	.type	nrf_uarte_disable, %function
nrf_uarte_disable:
.LFB166:
	.loc 5 554 1
	@ args = 0, pretend = 0, frame = 8
	@ frame_needed = 0, uses_anonymous_args = 0
	@ link register save eliminated.
	sub	sp, sp, #8
.LCFI35:
	str	r0, [sp, #4]
	.loc 5 555 19
	ldr	r3, [sp, #4]
	movs	r2, #0
	str	r2, [r3, #1280]
	.loc 5 556 1
	nop
	add	sp, sp, #8
.LCFI36:
	@ sp needed
	bx	lr
.LFE166:
	.size	nrf_uarte_disable, .-nrf_uarte_disable
	.section	.text.nrf_uarte_txrx_pins_set,"ax",%progbits
	.align	1
	.syntax unified
	.thumb
	.thumb_func
	.fpu softvfp
	.type	nrf_uarte_txrx_pins_set, %function
nrf_uarte_txrx_pins_set:
.LFB167:
	.loc 5 559 1
	@ args = 0, pretend = 0, frame = 16
	@ frame_needed = 0, uses_anonymous_args = 0
	@ link register save eliminated.
	sub	sp, sp, #16
.LCFI37:
	str	r0, [sp, #12]
	str	r1, [sp, #8]
	str	r2, [sp, #4]
	.loc 5 560 21
	ldr	r3, [sp, #12]
	ldr	r2, [sp, #8]
	str	r2, [r3, #1292]
	.loc 5 561 21
	ldr	r3, [sp, #12]
	ldr	r2, [sp, #4]
	str	r2, [r3, #1300]
	.loc 5 562 1
	nop
	add	sp, sp, #16
.LCFI38:
	@ sp needed
	bx	lr
.LFE167:
	.size	nrf_uarte_txrx_pins_set, .-nrf_uarte_txrx_pins_set
	.section	.text.nrf_uarte_txrx_pins_disconnect,"ax",%progbits
	.align	1
	.syntax unified
	.thumb
	.thumb_func
	.fpu softvfp
	.type	nrf_uarte_txrx_pins_disconnect, %function
nrf_uarte_txrx_pins_disconnect:
.LFB168:
	.loc 5 565 1
	@ args = 0, pretend = 0, frame = 8
	@ frame_needed = 0, uses_anonymous_args = 0
	push	{lr}
.LCFI39:
	sub	sp, sp, #12
.LCFI40:
	str	r0, [sp, #4]
	.loc 5 566 5
	mov	r2, #-1
	mov	r1, #-1
	ldr	r0, [sp, #4]
	bl	nrf_uarte_txrx_pins_set
	.loc 5 567 1
	nop
	add	sp, sp, #12
.LCFI41:
	@ sp needed
	ldr	pc, [sp], #4
.LFE168:
	.size	nrf_uarte_txrx_pins_disconnect, .-nrf_uarte_txrx_pins_disconnect
	.section	.text.nrf_uarte_tx_pin_get,"ax",%progbits
	.align	1
	.syntax unified
	.thumb
	.thumb_func
	.fpu softvfp
	.type	nrf_uarte_tx_pin_get, %function
nrf_uarte_tx_pin_get:
.LFB169:
	.loc 5 570 1
	@ args = 0, pretend = 0, frame = 8
	@ frame_needed = 0, uses_anonymous_args = 0
	@ link register save eliminated.
	sub	sp, sp, #8
.LCFI42:
	str	r0, [sp, #4]
	.loc 5 571 23
	ldr	r3, [sp, #4]
	ldr	r3, [r3, #1292]
	.loc 5 572 1
	mov	r0, r3
	add	sp, sp, #8
.LCFI43:
	@ sp needed
	bx	lr
.LFE169:
	.size	nrf_uarte_tx_pin_get, .-nrf_uarte_tx_pin_get
	.section	.text.nrf_uarte_rx_pin_get,"ax",%progbits
	.align	1
	.syntax unified
	.thumb
	.thumb_func
	.fpu softvfp
	.type	nrf_uarte_rx_pin_get, %function
nrf_uarte_rx_pin_get:
.LFB170:
	.loc 5 575 1
	@ args = 0, pretend = 0, frame = 8
	@ frame_needed = 0, uses_anonymous_args = 0
	@ link register save eliminated.
	sub	sp, sp, #8
.LCFI44:
	str	r0, [sp, #4]
	.loc 5 576 23
	ldr	r3, [sp, #4]
	ldr	r3, [r3, #1300]
	.loc 5 577 1
	mov	r0, r3
	add	sp, sp, #8
.LCFI45:
	@ sp needed
	bx	lr
.LFE170:
	.size	nrf_uarte_rx_pin_get, .-nrf_uarte_rx_pin_get
	.section	.text.nrf_uarte_rts_pin_get,"ax",%progbits
	.align	1
	.syntax unified
	.thumb
	.thumb_func
	.fpu softvfp
	.type	nrf_uarte_rts_pin_get, %function
nrf_uarte_rts_pin_get:
.LFB171:
	.loc 5 580 1
	@ args = 0, pretend = 0, frame = 8
	@ frame_needed = 0, uses_anonymous_args = 0
	@ link register save eliminated.
	sub	sp, sp, #8
.LCFI46:
	str	r0, [sp, #4]
	.loc 5 581 23
	ldr	r3, [sp, #4]
	ldr	r3, [r3, #1288]
	.loc 5 582 1
	mov	r0, r3
	add	sp, sp, #8
.LCFI47:
	@ sp needed
	bx	lr
.LFE171:
	.size	nrf_uarte_rts_pin_get, .-nrf_uarte_rts_pin_get
	.section	.text.nrf_uarte_cts_pin_get,"ax",%progbits
	.align	1
	.syntax unified
	.thumb
	.thumb_func
	.fpu softvfp
	.type	nrf_uarte_cts_pin_get, %function
nrf_uarte_cts_pin_get:
.LFB172:
	.loc 5 585 1
	@ args = 0, pretend = 0, frame = 8
	@ frame_needed = 0, uses_anonymous_args = 0
	@ link register save eliminated.
	sub	sp, sp, #8
.LCFI48:
	str	r0, [sp, #4]
	.loc 5 586 23
	ldr	r3, [sp, #4]
	ldr	r3, [r3, #1296]
	.loc 5 587 1
	mov	r0, r3
	add	sp, sp, #8
.LCFI49:
	@ sp needed
	bx	lr
.LFE172:
	.size	nrf_uarte_cts_pin_get, .-nrf_uarte_cts_pin_get
	.section	.text.nrf_uarte_hwfc_pins_set,"ax",%progbits
	.align	1
	.syntax unified
	.thumb
	.thumb_func
	.fpu softvfp
	.type	nrf_uarte_hwfc_pins_set, %function
nrf_uarte_hwfc_pins_set:
.LFB173:
	.loc 5 590 1
	@ args = 0, pretend = 0, frame = 16
	@ frame_needed = 0, uses_anonymous_args = 0
	@ link register save eliminated.
	sub	sp, sp, #16
.LCFI50:
	str	r0, [sp, #12]
	str	r1, [sp, #8]
	str	r2, [sp, #4]
	.loc 5 591 21
	ldr	r3, [sp, #12]
	ldr	r2, [sp, #8]
	str	r2, [r3, #1288]
	.loc 5 592 21
	ldr	r3, [sp, #12]
	ldr	r2, [sp, #4]
	str	r2, [r3, #1296]
	.loc 5 593 1
	nop
	add	sp, sp, #16
.LCFI51:
	@ sp needed
	bx	lr
.LFE173:
	.size	nrf_uarte_hwfc_pins_set, .-nrf_uarte_hwfc_pins_set
	.section	.text.nrf_uarte_hwfc_pins_disconnect,"ax",%progbits
	.align	1
	.syntax unified
	.thumb
	.thumb_func
	.fpu softvfp
	.type	nrf_uarte_hwfc_pins_disconnect, %function
nrf_uarte_hwfc_pins_disconnect:
.LFB174:
	.loc 5 596 1
	@ args = 0, pretend = 0, frame = 8
	@ frame_needed = 0, uses_anonymous_args = 0
	push	{lr}
.LCFI52:
	sub	sp, sp, #12
.LCFI53:
	str	r0, [sp, #4]
	.loc 5 597 5
	mov	r2, #-1
	mov	r1, #-1
	ldr	r0, [sp, #4]
	bl	nrf_uarte_hwfc_pins_set
	.loc 5 598 1
	nop
	add	sp, sp, #12
.LCFI54:
	@ sp needed
	ldr	pc, [sp], #4
.LFE174:
	.size	nrf_uarte_hwfc_pins_disconnect, .-nrf_uarte_hwfc_pins_disconnect
	.section	.text.nrf_uarte_task_trigger,"ax",%progbits
	.align	1
	.syntax unified
	.thumb
	.thumb_func
	.fpu softvfp
	.type	nrf_uarte_task_trigger, %function
nrf_uarte_task_trigger:
.LFB175:
	.loc 5 601 1
	@ args = 0, pretend = 0, frame = 8
	@ frame_needed = 0, uses_anonymous_args = 0
	@ link register save eliminated.
	sub	sp, sp, #8
.LCFI55:
	str	r0, [sp, #4]
	mov	r3, r1
	strb	r3, [sp, #3]
	.loc 5 602 48
	ldrb	r3, [sp, #3]	@ zero_extendqisi2
	.loc 5 602 7
	ldr	r2, [sp, #4]
	add	r3, r3, r2
	.loc 5 602 65
	movs	r2, #1
	str	r2, [r3]
	.loc 5 603 1
	nop
	add	sp, sp, #8
.LCFI56:
	@ sp needed
	bx	lr
.LFE175:
	.size	nrf_uarte_task_trigger, .-nrf_uarte_task_trigger
	.section	.text.nrf_uarte_configure,"ax",%progbits
	.align	1
	.syntax unified
	.thumb
	.thumb_func
	.fpu softvfp
	.type	nrf_uarte_configure, %function
nrf_uarte_configure:
.LFB177:
	.loc 5 613 1
	@ args = 0, pretend = 0, frame = 8
	@ frame_needed = 0, uses_anonymous_args = 0
	@ link register save eliminated.
	sub	sp, sp, #8
.LCFI57:
	str	r0, [sp, #4]
	mov	r3, r1
	strb	r3, [sp, #3]
	mov	r3, r2
	strb	r3, [sp, #2]
	.loc 5 614 38
	ldrb	r2, [sp, #3]
	ldrb	r3, [sp, #2]
	orrs	r3, r3, r2
	uxtb	r3, r3
	mov	r2, r3
	.loc 5 614 19
	ldr	r3, [sp, #4]
	str	r2, [r3, #1388]
	.loc 5 615 1
	nop
	add	sp, sp, #8
.LCFI58:
	@ sp needed
	bx	lr
.LFE177:
	.size	nrf_uarte_configure, .-nrf_uarte_configure
	.section	.text.nrf_uarte_baudrate_set,"ax",%progbits
	.align	1
	.syntax unified
	.thumb
	.thumb_func
	.fpu softvfp
	.type	nrf_uarte_baudrate_set, %function
nrf_uarte_baudrate_set:
.LFB178:
	.loc 5 618 1
	@ args = 0, pretend = 0, frame = 8
	@ frame_needed = 0, uses_anonymous_args = 0
	@ link register save eliminated.
	sub	sp, sp, #8
.LCFI59:
	str	r0, [sp, #4]
	str	r1, [sp]
	.loc 5 619 21
	ldr	r3, [sp, #4]
	ldr	r2, [sp]
	str	r2, [r3, #1316]
	.loc 5 620 1
	nop
	add	sp, sp, #8
.LCFI60:
	@ sp needed
	bx	lr
.LFE178:
	.size	nrf_uarte_baudrate_set, .-nrf_uarte_baudrate_set
	.section	.text.nrf_uarte_tx_buffer_set,"ax",%progbits
	.align	1
	.syntax unified
	.thumb
	.thumb_func
	.fpu softvfp
	.type	nrf_uarte_tx_buffer_set, %function
nrf_uarte_tx_buffer_set:
.LFB179:
	.loc 5 625 1
	@ args = 0, pretend = 0, frame = 16
	@ frame_needed = 0, uses_anonymous_args = 0
	@ link register save eliminated.
	sub	sp, sp, #16
.LCFI61:
	str	r0, [sp, #12]
	str	r1, [sp, #8]
	str	r2, [sp, #4]
	.loc 5 626 25
	ldr	r2, [sp, #8]
	.loc 5 626 23
	ldr	r3, [sp, #12]
	str	r2, [r3, #1348]
	.loc 5 627 23
	ldr	r3, [sp, #12]
	ldr	r2, [sp, #4]
	str	r2, [r3, #1352]
	.loc 5 628 1
	nop
	add	sp, sp, #16
.LCFI62:
	@ sp needed
	bx	lr
.LFE179:
	.size	nrf_uarte_tx_buffer_set, .-nrf_uarte_tx_buffer_set
	.section	.text.nrf_uarte_tx_amount_get,"ax",%progbits
	.align	1
	.syntax unified
	.thumb
	.thumb_func
	.fpu softvfp
	.type	nrf_uarte_tx_amount_get, %function
nrf_uarte_tx_amount_get:
.LFB180:
	.loc 5 631 1
	@ args = 0, pretend = 0, frame = 8
	@ frame_needed = 0, uses_anonymous_args = 0
	@ link register save eliminated.
	sub	sp, sp, #8
.LCFI63:
	str	r0, [sp, #4]
	.loc 5 632 22
	ldr	r3, [sp, #4]
	ldr	r3, [r3, #1356]
	.loc 5 633 1
	mov	r0, r3
	add	sp, sp, #8
.LCFI64:
	@ sp needed
	bx	lr
.LFE180:
	.size	nrf_uarte_tx_amount_get, .-nrf_uarte_tx_amount_get
	.section	.text.nrf_uarte_rx_buffer_set,"ax",%progbits
	.align	1
	.syntax unified
	.thumb
	.thumb_func
	.fpu softvfp
	.type	nrf_uarte_rx_buffer_set, %function
nrf_uarte_rx_buffer_set:
.LFB181:
	.loc 5 638 1
	@ args = 0, pretend = 0, frame = 16
	@ frame_needed = 0, uses_anonymous_args = 0
	@ link register save eliminated.
	sub	sp, sp, #16
.LCFI65:
	str	r0, [sp, #12]
	str	r1, [sp, #8]
	str	r2, [sp, #4]
	.loc 5 639 25
	ldr	r2, [sp, #8]
	.loc 5 639 23
	ldr	r3, [sp, #12]
	str	r2, [r3, #1332]
	.loc 5 640 23
	ldr	r3, [sp, #12]
	ldr	r2, [sp, #4]
	str	r2, [r3, #1336]
	.loc 5 641 1
	nop
	add	sp, sp, #16
.LCFI66:
	@ sp needed
	bx	lr
.LFE181:
	.size	nrf_uarte_rx_buffer_set, .-nrf_uarte_rx_buffer_set
	.section	.text.nrf_uarte_rx_amount_get,"ax",%progbits
	.align	1
	.syntax unified
	.thumb
	.thumb_func
	.fpu softvfp
	.type	nrf_uarte_rx_amount_get, %function
nrf_uarte_rx_amount_get:
.LFB182:
	.loc 5 644 1
	@ args = 0, pretend = 0, frame = 8
	@ frame_needed = 0, uses_anonymous_args = 0
	@ link register save eliminated.
	sub	sp, sp, #8
.LCFI67:
	str	r0, [sp, #4]
	.loc 5 645 22
	ldr	r3, [sp, #4]
	ldr	r3, [r3, #1340]
	.loc 5 646 1
	mov	r0, r3
	add	sp, sp, #8
.LCFI68:
	@ sp needed
	bx	lr
.LFE182:
	.size	nrf_uarte_rx_amount_get, .-nrf_uarte_rx_amount_get
	.section	.text.nrf_gpio_pin_port_decode,"ax",%progbits
	.align	1
	.syntax unified
	.thumb
	.thumb_func
	.fpu softvfp
	.type	nrf_gpio_pin_port_decode, %function
nrf_gpio_pin_port_decode:
.LFB185:
	.file 6 "./../../../../../../../modules/nrfx/hal/nrf_gpio.h"
	.loc 6 485 1
	@ args = 0, pretend = 0, frame = 8
	@ frame_needed = 0, uses_anonymous_args = 0
	@ link register save eliminated.
	sub	sp, sp, #8
.LCFI69:
	str	r0, [sp, #4]
	.loc 6 490 9
	ldr	r3, [sp, #4]
	ldr	r3, [r3]
	.loc 6 490 8
	cmp	r3, #31
	bhi	.L54
	.loc 6 492 16
	mov	r3, #1342177280
	b	.L55
.L54:
	.loc 6 496 18
	ldr	r3, [sp, #4]
	ldr	r3, [r3]
	.loc 6 496 25
	and	r2, r3, #31
	.loc 6 496 16
	ldr	r3, [sp, #4]
	str	r2, [r3]
	.loc 6 497 16
	ldr	r3, .L56
.L55:
	.loc 6 500 1
	mov	r0, r3
	add	sp, sp, #8
.LCFI70:
	@ sp needed
	bx	lr
.L57:
	.align	2
.L56:
	.word	1342178048
.LFE185:
	.size	nrf_gpio_pin_port_decode, .-nrf_gpio_pin_port_decode
	.section	.text.nrf_gpio_cfg,"ax",%progbits
	.align	1
	.syntax unified
	.thumb
	.thumb_func
	.fpu softvfp
	.type	nrf_gpio_cfg, %function
nrf_gpio_cfg:
.LFB188:
	.loc 6 532 1
	@ args = 8, pretend = 0, frame = 16
	@ frame_needed = 0, uses_anonymous_args = 0
	push	{lr}
.LCFI71:
	sub	sp, sp, #20
.LCFI72:
	str	r0, [sp, #4]
	mov	r0, r1
	mov	r1, r2
	mov	r2, r3
	mov	r3, r0
	strb	r3, [sp, #3]
	mov	r3, r1
	strb	r3, [sp, #2]
	mov	r3, r2
	strb	r3, [sp, #1]
	.loc 6 533 27
	add	r3, sp, #4
	mov	r0, r3
	bl	nrf_gpio_pin_port_decode
	str	r0, [sp, #12]
	.loc 6 535 47
	ldrb	r2, [sp, #3]	@ zero_extendqisi2
	.loc 6 536 35
	ldrb	r3, [sp, #2]	@ zero_extendqisi2
	.loc 6 536 51
	lsls	r3, r3, #1
	.loc 6 536 32
	orrs	r2, r2, r3
	.loc 6 537 35
	ldrb	r3, [sp, #1]	@ zero_extendqisi2
	.loc 6 537 50
	lsls	r3, r3, #2
	.loc 6 537 32
	orrs	r2, r2, r3
	.loc 6 538 35
	ldrb	r3, [sp, #24]	@ zero_extendqisi2
	.loc 6 538 51
	lsls	r3, r3, #8
	.loc 6 538 32
	orr	r1, r2, r3
	.loc 6 539 35
	ldrb	r3, [sp, #28]	@ zero_extendqisi2
	.loc 6 539 51
	lsls	r3, r3, #16
	.loc 6 535 17
	ldr	r2, [sp, #4]
	.loc 6 539 32
	orrs	r1, r1, r3
	.loc 6 535 30
	ldr	r3, [sp, #12]
	add	r2, r2, #448
	str	r1, [r3, r2, lsl #2]
	.loc 6 540 1
	nop
	add	sp, sp, #20
.LCFI73:
	@ sp needed
	ldr	pc, [sp], #4
.LFE188:
	.size	nrf_gpio_cfg, .-nrf_gpio_cfg
	.section	.text.nrf_gpio_cfg_output,"ax",%progbits
	.align	1
	.syntax unified
	.thumb
	.thumb_func
	.fpu softvfp
	.type	nrf_gpio_cfg_output, %function
nrf_gpio_cfg_output:
.LFB189:
	.loc 6 544 1
	@ args = 0, pretend = 0, frame = 8
	@ frame_needed = 0, uses_anonymous_args = 0
	push	{lr}
.LCFI74:
	sub	sp, sp, #20
.LCFI75:
	str	r0, [sp, #12]
	.loc 6 545 5
	movs	r3, #0
	str	r3, [sp, #4]
	movs	r3, #0
	str	r3, [sp]
	movs	r3, #0
	movs	r2, #1
	movs	r1, #1
	ldr	r0, [sp, #12]
	bl	nrf_gpio_cfg
	.loc 6 552 1
	nop
	add	sp, sp, #20
.LCFI76:
	@ sp needed
	ldr	pc, [sp], #4
.LFE189:
	.size	nrf_gpio_cfg_output, .-nrf_gpio_cfg_output
	.section	.text.nrf_gpio_cfg_input,"ax",%progbits
	.align	1
	.syntax unified
	.thumb
	.thumb_func
	.fpu softvfp
	.type	nrf_gpio_cfg_input, %function
nrf_gpio_cfg_input:
.LFB190:
	.loc 6 556 1
	@ args = 0, pretend = 0, frame = 8
	@ frame_needed = 0, uses_anonymous_args = 0
	push	{lr}
.LCFI77:
	sub	sp, sp, #20
.LCFI78:
	str	r0, [sp, #12]
	mov	r3, r1
	strb	r3, [sp, #11]
	.loc 6 557 5
	ldrb	r2, [sp, #11]	@ zero_extendqisi2
	movs	r3, #0
	str	r3, [sp, #4]
	movs	r3, #0
	str	r3, [sp]
	mov	r3, r2
	movs	r2, #0
	movs	r1, #0
	ldr	r0, [sp, #12]
	bl	nrf_gpio_cfg
	.loc 6 564 1
	nop
	add	sp, sp, #20
.LCFI79:
	@ sp needed
	ldr	pc, [sp], #4
.LFE190:
	.size	nrf_gpio_cfg_input, .-nrf_gpio_cfg_input
	.section	.text.nrf_gpio_cfg_default,"ax",%progbits
	.align	1
	.syntax unified
	.thumb
	.thumb_func
	.fpu softvfp
	.type	nrf_gpio_cfg_default, %function
nrf_gpio_cfg_default:
.LFB191:
	.loc 6 568 1
	@ args = 0, pretend = 0, frame = 8
	@ frame_needed = 0, uses_anonymous_args = 0
	push	{lr}
.LCFI80:
	sub	sp, sp, #20
.LCFI81:
	str	r0, [sp, #12]
	.loc 6 569 5
	movs	r3, #0
	str	r3, [sp, #4]
	movs	r3, #0
	str	r3, [sp]
	movs	r3, #0
	movs	r2, #1
	movs	r1, #0
	ldr	r0, [sp, #12]
	bl	nrf_gpio_cfg
	.loc 6 576 1
	nop
	add	sp, sp, #20
.LCFI82:
	@ sp needed
	ldr	pc, [sp], #4
.LFE191:
	.size	nrf_gpio_cfg_default, .-nrf_gpio_cfg_default
	.section	.text.nrf_gpio_pin_set,"ax",%progbits
	.align	1
	.syntax unified
	.thumb
	.thumb_func
	.fpu softvfp
	.type	nrf_gpio_pin_set, %function
nrf_gpio_pin_set:
.LFB197:
	.loc 6 644 1
	@ args = 0, pretend = 0, frame = 16
	@ frame_needed = 0, uses_anonymous_args = 0
	push	{lr}
.LCFI83:
	sub	sp, sp, #20
.LCFI84:
	str	r0, [sp, #4]
	.loc 6 645 27
	add	r3, sp, #4
	mov	r0, r3
	bl	nrf_gpio_pin_port_decode
	str	r0, [sp, #12]
	.loc 6 647 5
	ldr	r3, [sp, #4]
	.loc 6 647 36
	movs	r2, #1
	lsl	r3, r2, r3
	.loc 6 647 5
	mov	r1, r3
	ldr	r0, [sp, #12]
	bl	nrf_gpio_port_out_set
	.loc 6 648 1
	nop
	add	sp, sp, #20
.LCFI85:
	@ sp needed
	ldr	pc, [sp], #4
.LFE197:
	.size	nrf_gpio_pin_set, .-nrf_gpio_pin_set
	.section	.text.nrf_gpio_port_out_set,"ax",%progbits
	.align	1
	.syntax unified
	.thumb
	.thumb_func
	.fpu softvfp
	.type	nrf_gpio_port_out_set, %function
nrf_gpio_port_out_set:
.LFB214:
	.loc 6 775 1
	@ args = 0, pretend = 0, frame = 8
	@ frame_needed = 0, uses_anonymous_args = 0
	@ link register save eliminated.
	sub	sp, sp, #8
.LCFI86:
	str	r0, [sp, #4]
	str	r1, [sp]
	.loc 6 776 19
	ldr	r3, [sp, #4]
	ldr	r2, [sp]
	str	r2, [r3, #1288]
	.loc 6 777 1
	nop
	add	sp, sp, #8
.LCFI87:
	@ sp needed
	bx	lr
.LFE214:
	.size	nrf_gpio_port_out_set, .-nrf_gpio_port_out_set
	.global	m_nrf_log_UARTE_logs_data_const
	.section .rodata
	.align	2
.LC0:
	.ascii	"UARTE\000"
	.section	.log_const_data_UARTE,"a"
	.align	2
	.type	m_nrf_log_UARTE_logs_data_const, %object
	.size	m_nrf_log_UARTE_logs_data_const, 8
m_nrf_log_UARTE_logs_data_const:
	.word	.LC0
	.byte	0
	.byte	0
	.byte	0
	.byte	0
	.global	m_nrf_log_UARTE_logs_data_dynamic
	.section	.log_dynamic_data_UARTE,"aw"
	.align	2
	.type	m_nrf_log_UARTE_logs_data_dynamic, %object
	.size	m_nrf_log_UARTE_logs_data_dynamic, 4
m_nrf_log_UARTE_logs_data_dynamic:
	.space	4
	.global	m_nrf_log_UARTE_logs_data_filter
	.section	.log_filter_data_UARTE,"aw"
	.align	2
	.type	m_nrf_log_UARTE_logs_data_filter, %object
	.size	m_nrf_log_UARTE_logs_data_filter, 4
m_nrf_log_UARTE_logs_data_filter:
	.space	4
	.section	.bss.m_cb,"aw",%nobits
	.align	2
	.type	m_cb, %object
	.size	m_cb, 36
m_cb:
	.space	36
	.section	.text.apply_config,"ax",%progbits
	.align	1
	.syntax unified
	.thumb
	.thumb_func
	.fpu softvfp
	.type	apply_config, %function
apply_config:
.LFB220:
	.file 7 "C:\\Users\\BertLenovo\\Downloads\\nRF5_2\\modules\\nrfx\\drivers\\src\\nrfx_uarte.c"
	.loc 7 114 1
	@ args = 0, pretend = 0, frame = 8
	@ frame_needed = 0, uses_anonymous_args = 0
	push	{lr}
.LCFI88:
	sub	sp, sp, #12
.LCFI89:
	str	r0, [sp, #4]
	str	r1, [sp]
	.loc 7 115 17
	ldr	r3, [sp]
	ldr	r3, [r3]
	.loc 7 115 8
	cmp	r3, #-1
	beq	.L65
	.loc 7 117 9
	ldr	r3, [sp]
	ldr	r3, [r3]
	mov	r0, r3
	bl	nrf_gpio_pin_set
	.loc 7 118 9
	ldr	r3, [sp]
	ldr	r3, [r3]
	mov	r0, r3
	bl	nrf_gpio_cfg_output
.L65:
	.loc 7 120 17
	ldr	r3, [sp]
	ldr	r3, [r3, #4]
	.loc 7 120 8
	cmp	r3, #-1
	beq	.L66
	.loc 7 122 9
	ldr	r3, [sp]
	ldr	r3, [r3, #4]
	movs	r1, #0
	mov	r0, r3
	bl	nrf_gpio_cfg_input
.L66:
	.loc 7 125 5
	ldr	r3, [sp, #4]
	ldr	r2, [r3]
	ldr	r3, [sp]
	ldr	r3, [r3, #24]
	mov	r1, r3
	mov	r0, r2
	bl	nrf_uarte_baudrate_set
	.loc 7 126 5
	ldr	r3, [sp, #4]
	ldr	r0, [r3]
	ldr	r3, [sp]
	ldrb	r1, [r3, #21]	@ zero_extendqisi2
	ldr	r3, [sp]
	ldrb	r3, [r3, #20]	@ zero_extendqisi2
	mov	r2, r3
	bl	nrf_uarte_configure
	.loc 7 127 5
	ldr	r3, [sp, #4]
	ldr	r0, [r3]
	ldr	r3, [sp]
	ldr	r1, [r3]
	ldr	r3, [sp]
	ldr	r3, [r3, #4]
	mov	r2, r3
	bl	nrf_uarte_txrx_pins_set
	.loc 7 128 17
	ldr	r3, [sp]
	ldrb	r3, [r3, #20]	@ zero_extendqisi2
	.loc 7 128 8
	cmp	r3, #1
	bne	.L70
	.loc 7 130 21
	ldr	r3, [sp]
	ldr	r3, [r3, #8]
	.loc 7 130 12
	cmp	r3, #-1
	beq	.L68
	.loc 7 132 13
	ldr	r3, [sp]
	ldr	r3, [r3, #8]
	movs	r1, #0
	mov	r0, r3
	bl	nrf_gpio_cfg_input
.L68:
	.loc 7 134 21
	ldr	r3, [sp]
	ldr	r3, [r3, #12]
	.loc 7 134 12
	cmp	r3, #-1
	beq	.L69
	.loc 7 136 13
	ldr	r3, [sp]
	ldr	r3, [r3, #12]
	mov	r0, r3
	bl	nrf_gpio_pin_set
	.loc 7 137 13
	ldr	r3, [sp]
	ldr	r3, [r3, #12]
	mov	r0, r3
	bl	nrf_gpio_cfg_output
.L69:
	.loc 7 139 9
	ldr	r3, [sp, #4]
	ldr	r0, [r3]
	ldr	r3, [sp]
	ldr	r1, [r3, #12]
	ldr	r3, [sp]
	ldr	r3, [r3, #8]
	mov	r2, r3
	bl	nrf_uarte_hwfc_pins_set
.L70:
	.loc 7 141 1
	nop
	add	sp, sp, #12
.LCFI90:
	@ sp needed
	ldr	pc, [sp], #4
.LFE220:
	.size	apply_config, .-apply_config
	.section	.text.interrupts_enable,"ax",%progbits
	.align	1
	.syntax unified
	.thumb
	.thumb_func
	.fpu softvfp
	.type	interrupts_enable, %function
interrupts_enable:
.LFB221:
	.loc 7 145 1
	@ args = 0, pretend = 0, frame = 8
	@ frame_needed = 0, uses_anonymous_args = 0
	push	{lr}
.LCFI91:
	sub	sp, sp, #12
.LCFI92:
	str	r0, [sp, #4]
	mov	r3, r1
	strb	r3, [sp, #3]
	.loc 7 146 5
	ldr	r3, [sp, #4]
	ldr	r3, [r3]
	mov	r1, #272
	mov	r0, r3
	bl	nrf_uarte_event_clear
	.loc 7 147 5
	ldr	r3, [sp, #4]
	ldr	r3, [r3]
	mov	r1, #288
	mov	r0, r3
	bl	nrf_uarte_event_clear
	.loc 7 148 5
	ldr	r3, [sp, #4]
	ldr	r3, [r3]
	mov	r1, #292
	mov	r0, r3
	bl	nrf_uarte_event_clear
	.loc 7 149 5
	ldr	r3, [sp, #4]
	ldr	r3, [r3]
	mov	r1, #324
	mov	r0, r3
	bl	nrf_uarte_event_clear
	.loc 7 150 5
	ldr	r3, [sp, #4]
	ldr	r3, [r3]
	ldr	r1, .L72
	mov	r0, r3
	bl	nrf_uarte_int_enable
	.loc 7 154 5
	ldr	r3, [sp, #4]
	ldr	r3, [r3]
	mov	r0, r3
	bl	nrfx_get_irq_number
	mov	r3, r0
	mov	r2, r3
	ldrb	r3, [sp, #3]	@ zero_extendqisi2
	mov	r1, r3
	mov	r0, r2
	bl	_NRFX_IRQ_PRIORITY_SET
	.loc 7 156 5
	ldr	r3, [sp, #4]
	ldr	r3, [r3]
	mov	r0, r3
	bl	nrfx_get_irq_number
	mov	r3, r0
	mov	r0, r3
	bl	_NRFX_IRQ_ENABLE
	.loc 7 157 1
	nop
	add	sp, sp, #12
.LCFI93:
	@ sp needed
	ldr	pc, [sp], #4
.L73:
	.align	2
.L72:
	.word	131856
.LFE221:
	.size	interrupts_enable, .-interrupts_enable
	.section	.text.interrupts_disable,"ax",%progbits
	.align	1
	.syntax unified
	.thumb
	.thumb_func
	.fpu softvfp
	.type	interrupts_disable, %function
interrupts_disable:
.LFB222:
	.loc 7 160 1
	@ args = 0, pretend = 0, frame = 8
	@ frame_needed = 0, uses_anonymous_args = 0
	push	{lr}
.LCFI94:
	sub	sp, sp, #12
.LCFI95:
	str	r0, [sp, #4]
	.loc 7 161 5
	ldr	r3, [sp, #4]
	ldr	r3, [r3]
	ldr	r1, .L75
	mov	r0, r3
	bl	nrf_uarte_int_disable
	.loc 7 165 5
	ldr	r3, [sp, #4]
	ldr	r3, [r3]
	mov	r0, r3
	bl	nrfx_get_irq_number
	mov	r3, r0
	mov	r0, r3
	bl	_NRFX_IRQ_DISABLE
	.loc 7 166 1
	nop
	add	sp, sp, #12
.LCFI96:
	@ sp needed
	ldr	pc, [sp], #4
.L76:
	.align	2
.L75:
	.word	131856
.LFE222:
	.size	interrupts_disable, .-interrupts_disable
	.section	.text.pins_to_default,"ax",%progbits
	.align	1
	.syntax unified
	.thumb
	.thumb_func
	.fpu softvfp
	.type	pins_to_default, %function
pins_to_default:
.LFB223:
	.loc 7 169 1
	@ args = 0, pretend = 0, frame = 24
	@ frame_needed = 0, uses_anonymous_args = 0
	push	{lr}
.LCFI97:
	sub	sp, sp, #28
.LCFI98:
	str	r0, [sp, #4]
	.loc 7 176 11
	ldr	r3, [sp, #4]
	ldr	r3, [r3]
	mov	r0, r3
	bl	nrf_uarte_tx_pin_get
	str	r0, [sp, #20]
	.loc 7 177 11
	ldr	r3, [sp, #4]
	ldr	r3, [r3]
	mov	r0, r3
	bl	nrf_uarte_rx_pin_get
	str	r0, [sp, #16]
	.loc 7 178 11
	ldr	r3, [sp, #4]
	ldr	r3, [r3]
	mov	r0, r3
	bl	nrf_uarte_rts_pin_get
	str	r0, [sp, #12]
	.loc 7 179 11
	ldr	r3, [sp, #4]
	ldr	r3, [r3]
	mov	r0, r3
	bl	nrf_uarte_cts_pin_get
	str	r0, [sp, #8]
	.loc 7 180 5
	ldr	r3, [sp, #4]
	ldr	r3, [r3]
	mov	r0, r3
	bl	nrf_uarte_txrx_pins_disconnect
	.loc 7 181 5
	ldr	r3, [sp, #4]
	ldr	r3, [r3]
	mov	r0, r3
	bl	nrf_uarte_hwfc_pins_disconnect
	.loc 7 183 8
	ldr	r3, [sp, #20]
	cmp	r3, #-1
	beq	.L78
	.loc 7 185 9
	ldr	r0, [sp, #20]
	bl	nrf_gpio_cfg_default
.L78:
	.loc 7 187 8
	ldr	r3, [sp, #16]
	cmp	r3, #-1
	beq	.L79
	.loc 7 189 9
	ldr	r0, [sp, #16]
	bl	nrf_gpio_cfg_default
.L79:
	.loc 7 191 8
	ldr	r3, [sp, #8]
	cmp	r3, #-1
	beq	.L80
	.loc 7 193 9
	ldr	r0, [sp, #8]
	bl	nrf_gpio_cfg_default
.L80:
	.loc 7 195 8
	ldr	r3, [sp, #12]
	cmp	r3, #-1
	beq	.L82
	.loc 7 197 9
	ldr	r0, [sp, #12]
	bl	nrf_gpio_cfg_default
.L82:
	.loc 7 199 1
	nop
	add	sp, sp, #28
.LCFI99:
	@ sp needed
	ldr	pc, [sp], #4
.LFE223:
	.size	pins_to_default, .-pins_to_default
	.section	.text.nrfx_uarte_init,"ax",%progbits
	.align	1
	.global	nrfx_uarte_init
	.syntax unified
	.thumb
	.thumb_func
	.fpu softvfp
	.type	nrfx_uarte_init, %function
nrfx_uarte_init:
.LFB224:
	.loc 7 204 1
	@ args = 0, pretend = 0, frame = 24
	@ frame_needed = 0, uses_anonymous_args = 0
	push	{lr}
.LCFI100:
	sub	sp, sp, #28
.LCFI101:
	str	r0, [sp, #12]
	str	r1, [sp, #8]
	str	r2, [sp, #4]
	.loc 7 206 52
	ldr	r3, [sp, #12]
	ldrb	r3, [r3, #4]	@ zero_extendqisi2
	mov	r2, r3
	.loc 7 206 29
	mov	r3, r2
	lsls	r3, r3, #3
	add	r3, r3, r2
	lsls	r3, r3, #2
	ldr	r2, .L88
	add	r3, r3, r2
	str	r3, [sp, #16]
	.loc 7 207 16
	movs	r3, #0
	str	r3, [sp, #20]
	.loc 7 209 13
	ldr	r3, [sp, #16]
	ldrb	r3, [r3, #32]	@ zero_extendqisi2
	.loc 7 209 8
	cmp	r3, #0
	beq	.L84
	.loc 7 211 18
	movs	r3, #8
	str	r3, [sp, #20]
	.loc 7 215 16
	ldr	r3, [sp, #20]
	b	.L85
.L84:
	.loc 7 233 36
	ldr	r3, [sp, #12]
	ldr	r2, [r3]
	.loc 7 234 36
	ldr	r3, [sp, #12]
	ldrb	r3, [r3, #4]	@ zero_extendqisi2
	mov	r1, r3
	.loc 7 233 9
	ldr	r3, .L88+4
	ldr	r3, [r3, r1, lsl #2]
	mov	r1, r3
	mov	r0, r2
	bl	nrfx_prs_acquire
	mov	r3, r0
	.loc 7 233 8
	cmp	r3, #0
	beq	.L86
	.loc 7 236 18
	movs	r3, #17
	str	r3, [sp, #20]
	.loc 7 240 16
	ldr	r3, [sp, #20]
	b	.L85
.L86:
	.loc 7 244 5
	ldr	r1, [sp, #8]
	ldr	r0, [sp, #12]
	bl	apply_config
	.loc 7 246 21
	ldr	r3, [sp, #16]
	ldr	r2, [sp, #4]
	str	r2, [r3, #4]
	.loc 7 247 31
	ldr	r3, [sp, #8]
	ldr	r2, [r3, #16]
	.loc 7 247 21
	ldr	r3, [sp, #16]
	str	r2, [r3]
	.loc 7 249 13
	ldr	r3, [sp, #16]
	ldr	r3, [r3, #4]
	.loc 7 249 8
	cmp	r3, #0
	beq	.L87
	.loc 7 251 9
	ldr	r3, [sp, #8]
	ldrb	r3, [r3, #28]	@ zero_extendqisi2
	mov	r1, r3
	ldr	r0, [sp, #12]
	bl	interrupts_enable
.L87:
	.loc 7 254 5
	ldr	r3, [sp, #12]
	ldr	r3, [r3]
	mov	r0, r3
	bl	nrf_uarte_enable
	.loc 7 255 38
	ldr	r3, [sp, #16]
	movs	r2, #0
	str	r2, [r3, #24]
	.loc 7 256 38
	ldr	r3, [sp, #16]
	movs	r2, #0
	str	r2, [r3, #28]
	.loc 7 257 38
	ldr	r3, [sp, #16]
	movs	r2, #0
	str	r2, [r3, #20]
	.loc 7 258 38
	ldr	r3, [sp, #16]
	movs	r2, #1
	strb	r2, [r3, #32]
	.loc 7 262 12
	ldr	r3, [sp, #20]
.L85:
	.loc 7 263 1
	mov	r0, r3
	add	sp, sp, #28
.LCFI102:
	@ sp needed
	ldr	pc, [sp], #4
.L89:
	.align	2
.L88:
	.word	m_cb
	.word	irq_handlers.7548
.LFE224:
	.size	nrfx_uarte_init, .-nrfx_uarte_init
	.section	.text.nrfx_uarte_uninit,"ax",%progbits
	.align	1
	.global	nrfx_uarte_uninit
	.syntax unified
	.thumb
	.thumb_func
	.fpu softvfp
	.type	nrfx_uarte_uninit, %function
nrfx_uarte_uninit:
.LFB225:
	.loc 7 266 1
	@ args = 0, pretend = 0, frame = 16
	@ frame_needed = 0, uses_anonymous_args = 0
	push	{lr}
.LCFI103:
	sub	sp, sp, #20
.LCFI104:
	str	r0, [sp, #4]
	.loc 7 267 52
	ldr	r3, [sp, #4]
	ldrb	r3, [r3, #4]	@ zero_extendqisi2
	mov	r2, r3
	.loc 7 267 29
	mov	r3, r2
	lsls	r3, r3, #3
	add	r3, r3, r2
	lsls	r3, r3, #2
	ldr	r2, .L92
	add	r3, r3, r2
	str	r3, [sp, #12]
	.loc 7 269 5
	ldr	r3, [sp, #4]
	ldr	r3, [r3]
	mov	r0, r3
	bl	nrf_uarte_disable
	.loc 7 271 13
	ldr	r3, [sp, #12]
	ldr	r3, [r3, #4]
	.loc 7 271 8
	cmp	r3, #0
	beq	.L91
	.loc 7 273 9
	ldr	r0, [sp, #4]
	bl	interrupts_disable
.L91:
	.loc 7 276 5
	ldr	r0, [sp, #4]
	bl	pins_to_default
	.loc 7 279 32
	ldr	r3, [sp, #4]
	ldr	r3, [r3]
	.loc 7 279 5
	mov	r0, r3
	bl	nrfx_prs_release
	.loc 7 282 19
	ldr	r3, [sp, #12]
	movs	r2, #0
	strb	r2, [r3, #32]
	.loc 7 283 19
	ldr	r3, [sp, #12]
	movs	r2, #0
	str	r2, [r3, #4]
	.loc 7 285 1
	nop
	add	sp, sp, #20
.LCFI105:
	@ sp needed
	ldr	pc, [sp], #4
.L93:
	.align	2
.L92:
	.word	m_cb
.LFE225:
	.size	nrfx_uarte_uninit, .-nrfx_uarte_uninit
	.section	.text.nrfx_uarte_tx,"ax",%progbits
	.align	1
	.global	nrfx_uarte_tx
	.syntax unified
	.thumb
	.thumb_func
	.fpu softvfp
	.type	nrfx_uarte_tx, %function
nrfx_uarte_tx:
.LFB226:
	.loc 7 290 1
	@ args = 0, pretend = 0, frame = 32
	@ frame_needed = 0, uses_anonymous_args = 0
	push	{lr}
.LCFI106:
	sub	sp, sp, #36
.LCFI107:
	str	r0, [sp, #12]
	str	r1, [sp, #8]
	str	r2, [sp, #4]
	.loc 7 291 52
	ldr	r3, [sp, #12]
	ldrb	r3, [r3, #4]	@ zero_extendqisi2
	mov	r2, r3
	.loc 7 291 29
	mov	r3, r2
	lsls	r3, r3, #3
	add	r3, r3, r2
	lsls	r3, r3, #2
	ldr	r2, .L103
	add	r3, r3, r2
	str	r3, [sp, #16]
	.loc 7 301 10
	ldr	r0, [sp, #8]
	bl	nrfx_is_in_ram
	mov	r3, r0
	.loc 7 301 9
	eor	r3, r3, #1
	uxtb	r3, r3
	.loc 7 301 8
	cmp	r3, #0
	beq	.L95
	.loc 7 303 18
	movs	r3, #16
	str	r3, [sp, #24]
	.loc 7 307 16
	ldr	r3, [sp, #24]
	b	.L96
.L95:
	.loc 7 310 9
	ldr	r0, [sp, #12]
	bl	nrfx_uarte_tx_in_progress
	mov	r3, r0
	.loc 7 310 8
	cmp	r3, #0
	beq	.L97
	.loc 7 312 18
	movs	r3, #17
	str	r3, [sp, #24]
	.loc 7 316 16
	ldr	r3, [sp, #24]
	b	.L96
.L97:
	.loc 7 318 28
	ldr	r3, [sp, #16]
	ldr	r2, [sp, #4]
	str	r2, [r3, #20]
	.loc 7 319 28
	ldr	r3, [sp, #16]
	ldr	r2, [sp, #8]
	str	r2, [r3, #8]
	.loc 7 326 14
	movs	r3, #0
	str	r3, [sp, #24]
	.loc 7 328 5
	ldr	r3, [sp, #12]
	ldr	r3, [r3]
	mov	r1, #288
	mov	r0, r3
	bl	nrf_uarte_event_clear
	.loc 7 329 5
	ldr	r3, [sp, #12]
	ldr	r3, [r3]
	mov	r1, #344
	mov	r0, r3
	bl	nrf_uarte_event_clear
	.loc 7 330 5
	ldr	r3, [sp, #12]
	ldr	r0, [r3]
	ldr	r3, [sp, #16]
	ldr	r1, [r3, #8]
	ldr	r3, [sp, #16]
	ldr	r3, [r3, #20]
	mov	r2, r3
	bl	nrf_uarte_tx_buffer_set
	.loc 7 331 5
	ldr	r3, [sp, #12]
	ldr	r3, [r3]
	movs	r1, #8
	mov	r0, r3
	bl	nrf_uarte_task_trigger
	.loc 7 333 13
	ldr	r3, [sp, #16]
	ldr	r3, [r3, #4]
	.loc 7 333 8
	cmp	r3, #0
	bne	.L102
.L100:
.LBB2:
	.loc 7 339 25 discriminator 2
	ldr	r3, [sp, #12]
	ldr	r3, [r3]
	mov	r1, #288
	mov	r0, r3
	bl	nrf_uarte_event_check
	mov	r3, r0
	strb	r3, [sp, #23]
	.loc 7 340 25 discriminator 2
	ldr	r3, [sp, #12]
	ldr	r3, [r3]
	mov	r1, #344
	mov	r0, r3
	bl	nrf_uarte_event_check
	mov	r3, r0
	strb	r3, [sp, #31]
	.loc 7 342 17 discriminator 2
	ldrb	r3, [sp, #23]
	eor	r3, r3, #1
	uxtb	r3, r3
	.loc 7 342 9 discriminator 2
	cmp	r3, #0
	beq	.L99
	.loc 7 342 29 discriminator 1
	ldrb	r3, [sp, #31]
	eor	r3, r3, #1
	uxtb	r3, r3
	.loc 7 342 25 discriminator 1
	cmp	r3, #0
	bne	.L100
.L99:
	.loc 7 344 12
	ldrb	r3, [sp, #31]	@ zero_extendqisi2
	cmp	r3, #0
	beq	.L101
	.loc 7 346 22
	movs	r3, #15
	str	r3, [sp, #24]
.L101:
	.loc 7 348 32
	ldr	r3, [sp, #16]
	movs	r2, #0
	str	r2, [r3, #20]
.L102:
.LBE2:
	.loc 7 352 12
	ldr	r3, [sp, #24]
.L96:
	.loc 7 353 1
	mov	r0, r3
	add	sp, sp, #36
.LCFI108:
	@ sp needed
	ldr	pc, [sp], #4
.L104:
	.align	2
.L103:
	.word	m_cb
.LFE226:
	.size	nrfx_uarte_tx, .-nrfx_uarte_tx
	.section	.text.nrfx_uarte_tx_in_progress,"ax",%progbits
	.align	1
	.global	nrfx_uarte_tx_in_progress
	.syntax unified
	.thumb
	.thumb_func
	.fpu softvfp
	.type	nrfx_uarte_tx_in_progress, %function
nrfx_uarte_tx_in_progress:
.LFB227:
	.loc 7 356 1
	@ args = 0, pretend = 0, frame = 8
	@ frame_needed = 0, uses_anonymous_args = 0
	@ link register save eliminated.
	sub	sp, sp, #8
.LCFI109:
	str	r0, [sp, #4]
	.loc 7 357 28
	ldr	r3, [sp, #4]
	ldrb	r3, [r3, #4]	@ zero_extendqisi2
	mov	r1, r3
	.loc 7 357 43
	ldr	r2, .L107
	mov	r3, r1
	lsls	r3, r3, #3
	add	r3, r3, r1
	lsls	r3, r3, #2
	add	r3, r3, r2
	adds	r3, r3, #20
	ldr	r3, [r3]
	.loc 7 357 61
	cmp	r3, #0
	ite	ne
	movne	r3, #1
	moveq	r3, #0
	uxtb	r3, r3
	.loc 7 358 1
	mov	r0, r3
	add	sp, sp, #8
.LCFI110:
	@ sp needed
	bx	lr
.L108:
	.align	2
.L107:
	.word	m_cb
.LFE227:
	.size	nrfx_uarte_tx_in_progress, .-nrfx_uarte_tx_in_progress
	.section	.text.nrfx_uarte_rx,"ax",%progbits
	.align	1
	.global	nrfx_uarte_rx
	.syntax unified
	.thumb
	.thumb_func
	.fpu softvfp
	.type	nrfx_uarte_rx, %function
nrfx_uarte_rx:
.LFB228:
	.loc 7 363 1
	@ args = 0, pretend = 0, frame = 40
	@ frame_needed = 0, uses_anonymous_args = 0
	push	{lr}
.LCFI111:
	sub	sp, sp, #44
.LCFI112:
	str	r0, [sp, #12]
	str	r1, [sp, #8]
	str	r2, [sp, #4]
	.loc 7 364 52
	ldr	r3, [sp, #12]
	ldrb	r3, [r3, #4]	@ zero_extendqisi2
	mov	r2, r3
	.loc 7 364 29
	mov	r3, r2
	lsls	r3, r3, #3
	add	r3, r3, r2
	lsls	r3, r3, #2
	ldr	r2, .L128
	add	r3, r3, r2
	str	r3, [sp, #24]
	.loc 7 375 10
	ldr	r0, [sp, #8]
	bl	nrfx_is_in_ram
	mov	r3, r0
	.loc 7 375 9
	eor	r3, r3, #1
	uxtb	r3, r3
	.loc 7 375 8
	cmp	r3, #0
	beq	.L110
	.loc 7 377 18
	movs	r3, #16
	str	r3, [sp, #32]
	.loc 7 381 16
	ldr	r3, [sp, #32]
	b	.L111
.L110:
	.loc 7 384 10
	movs	r3, #0
	strb	r3, [sp, #31]
	.loc 7 386 13
	ldr	r3, [sp, #24]
	ldr	r3, [r3, #4]
	.loc 7 386 8
	cmp	r3, #0
	beq	.L112
	.loc 7 388 9
	ldr	r3, [sp, #12]
	ldr	r3, [r3]
	mov	r1, #528
	mov	r0, r3
	bl	nrf_uarte_int_disable
.L112:
	.loc 7 391 13
	ldr	r3, [sp, #24]
	ldr	r3, [r3, #24]
	.loc 7 391 8
	cmp	r3, #0
	beq	.L113
	.loc 7 393 17
	ldr	r3, [sp, #24]
	ldr	r3, [r3, #28]
	.loc 7 393 12
	cmp	r3, #0
	beq	.L114
	.loc 7 395 21
	ldr	r3, [sp, #24]
	ldr	r3, [r3, #4]
	.loc 7 395 16
	cmp	r3, #0
	beq	.L115
	.loc 7 397 17
	ldr	r3, [sp, #12]
	ldr	r3, [r3]
	mov	r1, #528
	mov	r0, r3
	bl	nrf_uarte_int_enable
.L115:
	.loc 7 400 22
	movs	r3, #17
	str	r3, [sp, #32]
	.loc 7 404 20
	ldr	r3, [sp, #32]
	b	.L111
.L114:
	.loc 7 406 23
	movs	r3, #1
	strb	r3, [sp, #31]
.L113:
	.loc 7 409 9
	ldrb	r3, [sp, #31]
	eor	r3, r3, #1
	uxtb	r3, r3
	.loc 7 409 8
	cmp	r3, #0
	beq	.L116
	.loc 7 411 32
	ldr	r3, [sp, #24]
	ldr	r2, [sp, #4]
	str	r2, [r3, #24]
	.loc 7 412 32
	ldr	r3, [sp, #24]
	ldr	r2, [sp, #8]
	str	r2, [r3, #12]
	.loc 7 413 42
	ldr	r3, [sp, #24]
	movs	r2, #0
	str	r2, [r3, #28]
	b	.L126
.L116:
	.loc 7 417 37
	ldr	r3, [sp, #24]
	ldr	r2, [sp, #8]
	str	r2, [r3, #16]
	.loc 7 418 42
	ldr	r3, [sp, #24]
	ldr	r2, [sp, #4]
	str	r2, [r3, #28]
.L126:
	.loc 7 423 14
	movs	r3, #0
	str	r3, [sp, #32]
	.loc 7 425 5
	ldr	r3, [sp, #12]
	ldr	r3, [r3]
	mov	r1, #272
	mov	r0, r3
	bl	nrf_uarte_event_clear
	.loc 7 426 5
	ldr	r3, [sp, #12]
	ldr	r3, [r3]
	mov	r1, #324
	mov	r0, r3
	bl	nrf_uarte_event_clear
	.loc 7 427 5
	ldr	r3, [sp, #12]
	ldr	r3, [r3]
	ldr	r2, [sp, #4]
	ldr	r1, [sp, #8]
	mov	r0, r3
	bl	nrf_uarte_rx_buffer_set
	.loc 7 428 9
	ldrb	r3, [sp, #31]
	eor	r3, r3, #1
	uxtb	r3, r3
	.loc 7 428 8
	cmp	r3, #0
	beq	.L118
	.loc 7 430 9
	ldr	r3, [sp, #12]
	ldr	r3, [r3]
	movs	r1, #0
	mov	r0, r3
	bl	nrf_uarte_task_trigger
	b	.L119
.L118:
	.loc 7 434 9
	ldr	r3, [sp, #12]
	ldr	r3, [r3]
	movs	r1, #32
	mov	r0, r3
	bl	nrf_uarte_shorts_enable
.L119:
	.loc 7 437 24
	ldr	r3, [sp, #12]
	ldrb	r3, [r3, #4]	@ zero_extendqisi2
	mov	r1, r3
	.loc 7 437 39
	ldr	r2, .L128
	mov	r3, r1
	lsls	r3, r3, #3
	add	r3, r3, r1
	lsls	r3, r3, #2
	add	r3, r3, r2
	adds	r3, r3, #4
	ldr	r3, [r3]
	.loc 7 437 8
	cmp	r3, #0
	bne	.L120
.L122:
.LBB3:
	.loc 7 443 22 discriminator 3
	ldr	r3, [sp, #12]
	ldr	r3, [r3]
	mov	r1, #272
	mov	r0, r3
	bl	nrf_uarte_event_check
	mov	r3, r0
	strb	r3, [sp, #39]
	.loc 7 444 22 discriminator 3
	ldr	r3, [sp, #12]
	ldr	r3, [r3]
	mov	r1, #324
	mov	r0, r3
	bl	nrf_uarte_event_check
	mov	r3, r0
	strb	r3, [sp, #38]
	.loc 7 445 22 discriminator 3
	ldr	r3, [sp, #12]
	ldr	r3, [r3]
	mov	r1, #292
	mov	r0, r3
	bl	nrf_uarte_event_check
	mov	r3, r0
	strb	r3, [sp, #23]
	.loc 7 446 19 discriminator 3
	ldrb	r3, [sp, #39]
	eor	r3, r3, #1
	uxtb	r3, r3
	.loc 7 446 9 discriminator 3
	cmp	r3, #0
	beq	.L121
	.loc 7 446 31 discriminator 1
	ldrb	r3, [sp, #38]
	eor	r3, r3, #1
	uxtb	r3, r3
	.loc 7 446 27 discriminator 1
	cmp	r3, #0
	beq	.L121
	.loc 7 446 42 discriminator 2
	ldrb	r3, [sp, #23]
	eor	r3, r3, #1
	uxtb	r3, r3
	.loc 7 446 38 discriminator 2
	cmp	r3, #0
	bne	.L122
.L121:
	.loc 7 448 24
	ldr	r3, [sp, #12]
	ldrb	r3, [r3, #4]	@ zero_extendqisi2
	mov	r1, r3
	.loc 7 448 57
	ldr	r2, .L128
	mov	r3, r1
	lsls	r3, r3, #3
	add	r3, r3, r1
	lsls	r3, r3, #2
	add	r3, r3, r2
	adds	r3, r3, #24
	movs	r2, #0
	str	r2, [r3]
	.loc 7 450 12
	ldrb	r3, [sp, #23]	@ zero_extendqisi2
	cmp	r3, #0
	beq	.L123
	.loc 7 452 22
	movs	r3, #3
	str	r3, [sp, #32]
.L123:
	.loc 7 455 12
	ldrb	r3, [sp, #38]	@ zero_extendqisi2
	cmp	r3, #0
	beq	.L127
	.loc 7 457 22
	movs	r3, #15
	str	r3, [sp, #32]
	b	.L127
.L120:
.LBE3:
	.loc 7 462 9
	ldr	r3, [sp, #12]
	ldr	r3, [r3]
	mov	r1, #528
	mov	r0, r3
	bl	nrf_uarte_int_enable
.L127:
	.loc 7 466 12
	ldr	r3, [sp, #32]
.L111:
	.loc 7 467 1
	mov	r0, r3
	add	sp, sp, #44
.LCFI113:
	@ sp needed
	ldr	pc, [sp], #4
.L129:
	.align	2
.L128:
	.word	m_cb
.LFE228:
	.size	nrfx_uarte_rx, .-nrfx_uarte_rx
	.section	.text.nrfx_uarte_rx_ready,"ax",%progbits
	.align	1
	.global	nrfx_uarte_rx_ready
	.syntax unified
	.thumb
	.thumb_func
	.fpu softvfp
	.type	nrfx_uarte_rx_ready, %function
nrfx_uarte_rx_ready:
.LFB229:
	.loc 7 470 1
	@ args = 0, pretend = 0, frame = 8
	@ frame_needed = 0, uses_anonymous_args = 0
	push	{lr}
.LCFI114:
	sub	sp, sp, #12
.LCFI115:
	str	r0, [sp, #4]
	.loc 7 471 12
	ldr	r3, [sp, #4]
	ldr	r3, [r3]
	mov	r1, #272
	mov	r0, r3
	bl	nrf_uarte_event_check
	mov	r3, r0
	.loc 7 472 1
	mov	r0, r3
	add	sp, sp, #12
.LCFI116:
	@ sp needed
	ldr	pc, [sp], #4
.LFE229:
	.size	nrfx_uarte_rx_ready, .-nrfx_uarte_rx_ready
	.section	.text.nrfx_uarte_errorsrc_get,"ax",%progbits
	.align	1
	.global	nrfx_uarte_errorsrc_get
	.syntax unified
	.thumb
	.thumb_func
	.fpu softvfp
	.type	nrfx_uarte_errorsrc_get, %function
nrfx_uarte_errorsrc_get:
.LFB230:
	.loc 7 475 1
	@ args = 0, pretend = 0, frame = 8
	@ frame_needed = 0, uses_anonymous_args = 0
	push	{lr}
.LCFI117:
	sub	sp, sp, #12
.LCFI118:
	str	r0, [sp, #4]
	.loc 7 476 5
	ldr	r3, [sp, #4]
	ldr	r3, [r3]
	mov	r1, #292
	mov	r0, r3
	bl	nrf_uarte_event_clear
	.loc 7 477 12
	ldr	r3, [sp, #4]
	ldr	r3, [r3]
	mov	r0, r3
	bl	nrf_uarte_errorsrc_get_and_clear
	mov	r3, r0
	.loc 7 478 1
	mov	r0, r3
	add	sp, sp, #12
.LCFI119:
	@ sp needed
	ldr	pc, [sp], #4
.LFE230:
	.size	nrfx_uarte_errorsrc_get, .-nrfx_uarte_errorsrc_get
	.section	.text.rx_done_event,"ax",%progbits
	.align	1
	.syntax unified
	.thumb
	.thumb_func
	.fpu softvfp
	.type	rx_done_event, %function
rx_done_event:
.LFB231:
	.loc 7 483 1
	@ args = 0, pretend = 0, frame = 32
	@ frame_needed = 0, uses_anonymous_args = 0
	push	{lr}
.LCFI120:
	sub	sp, sp, #36
.LCFI121:
	str	r0, [sp, #12]
	str	r1, [sp, #8]
	str	r2, [sp, #4]
	.loc 7 486 28
	movs	r3, #1
	strb	r3, [sp, #16]
	.loc 7 487 28
	ldr	r3, [sp, #8]
	str	r3, [sp, #24]
	.loc 7 488 28
	ldr	r3, [sp, #4]
	str	r3, [sp, #20]
	.loc 7 490 9
	ldr	r3, [sp, #12]
	ldr	r3, [r3, #4]
	.loc 7 490 5
	ldr	r2, [sp, #12]
	ldr	r1, [r2]
	add	r2, sp, #16
	mov	r0, r2
	blx	r3
.LVL0:
	.loc 7 491 1
	nop
	add	sp, sp, #36
.LCFI122:
	@ sp needed
	ldr	pc, [sp], #4
.LFE231:
	.size	rx_done_event, .-rx_done_event
	.section	.text.tx_done_event,"ax",%progbits
	.align	1
	.syntax unified
	.thumb
	.thumb_func
	.fpu softvfp
	.type	tx_done_event, %function
tx_done_event:
.LFB232:
	.loc 7 495 1
	@ args = 0, pretend = 0, frame = 24
	@ frame_needed = 0, uses_anonymous_args = 0
	push	{lr}
.LCFI123:
	sub	sp, sp, #28
.LCFI124:
	str	r0, [sp, #4]
	str	r1, [sp]
	.loc 7 498 28
	movs	r3, #0
	strb	r3, [sp, #8]
	.loc 7 499 28
	ldr	r3, [sp]
	str	r3, [sp, #16]
	.loc 7 500 45
	ldr	r3, [sp, #4]
	ldr	r3, [r3, #8]
	.loc 7 500 28
	str	r3, [sp, #12]
	.loc 7 502 28
	ldr	r3, [sp, #4]
	movs	r2, #0
	str	r2, [r3, #20]
	.loc 7 504 9
	ldr	r3, [sp, #4]
	ldr	r3, [r3, #4]
	.loc 7 504 5
	ldr	r2, [sp, #4]
	ldr	r1, [r2]
	add	r2, sp, #8
	mov	r0, r2
	blx	r3
.LVL1:
	.loc 7 505 1
	nop
	add	sp, sp, #28
.LCFI125:
	@ sp needed
	ldr	pc, [sp], #4
.LFE232:
	.size	tx_done_event, .-tx_done_event
	.section	.text.nrfx_uarte_tx_abort,"ax",%progbits
	.align	1
	.global	nrfx_uarte_tx_abort
	.syntax unified
	.thumb
	.thumb_func
	.fpu softvfp
	.type	nrfx_uarte_tx_abort, %function
nrfx_uarte_tx_abort:
.LFB233:
	.loc 7 508 1
	@ args = 0, pretend = 0, frame = 16
	@ frame_needed = 0, uses_anonymous_args = 0
	push	{lr}
.LCFI126:
	sub	sp, sp, #20
.LCFI127:
	str	r0, [sp, #4]
	.loc 7 509 52
	ldr	r3, [sp, #4]
	ldrb	r3, [r3, #4]	@ zero_extendqisi2
	mov	r2, r3
	.loc 7 509 29
	mov	r3, r2
	lsls	r3, r3, #3
	add	r3, r3, r2
	lsls	r3, r3, #2
	ldr	r2, .L140
	add	r3, r3, r2
	str	r3, [sp, #12]
	.loc 7 511 5
	ldr	r3, [sp, #4]
	ldr	r3, [r3]
	mov	r1, #344
	mov	r0, r3
	bl	nrf_uarte_event_clear
	.loc 7 512 5
	ldr	r3, [sp, #4]
	ldr	r3, [r3]
	movs	r1, #12
	mov	r0, r3
	bl	nrf_uarte_task_trigger
	.loc 7 513 13
	ldr	r3, [sp, #12]
	ldr	r3, [r3, #4]
	.loc 7 513 8
	cmp	r3, #0
	bne	.L139
	.loc 7 515 15
	nop
.L138:
	.loc 7 515 17 discriminator 1
	ldr	r3, [sp, #4]
	ldr	r3, [r3]
	mov	r1, #344
	mov	r0, r3
	bl	nrf_uarte_event_check
	mov	r3, r0
	.loc 7 515 16 discriminator 1
	eor	r3, r3, #1
	uxtb	r3, r3
	.loc 7 515 15 discriminator 1
	cmp	r3, #0
	bne	.L138
.L139:
	.loc 7 519 1
	nop
	add	sp, sp, #20
.LCFI128:
	@ sp needed
	ldr	pc, [sp], #4
.L141:
	.align	2
.L140:
	.word	m_cb
.LFE233:
	.size	nrfx_uarte_tx_abort, .-nrfx_uarte_tx_abort
	.section	.text.nrfx_uarte_rx_abort,"ax",%progbits
	.align	1
	.global	nrfx_uarte_rx_abort
	.syntax unified
	.thumb
	.thumb_func
	.fpu softvfp
	.type	nrfx_uarte_rx_abort, %function
nrfx_uarte_rx_abort:
.LFB234:
	.loc 7 522 1
	@ args = 0, pretend = 0, frame = 16
	@ frame_needed = 0, uses_anonymous_args = 0
	push	{lr}
.LCFI129:
	sub	sp, sp, #20
.LCFI130:
	str	r0, [sp, #4]
	.loc 7 523 52
	ldr	r3, [sp, #4]
	ldrb	r3, [r3, #4]	@ zero_extendqisi2
	mov	r2, r3
	.loc 7 523 29
	mov	r3, r2
	lsls	r3, r3, #3
	add	r3, r3, r2
	lsls	r3, r3, #2
	ldr	r2, .L144
	add	r3, r3, r2
	str	r3, [sp, #12]
	.loc 7 527 13
	ldr	r3, [sp, #12]
	ldr	r3, [r3, #28]
	.loc 7 527 8
	cmp	r3, #0
	beq	.L143
	.loc 7 529 9
	ldr	r3, [sp, #4]
	ldr	r3, [r3]
	movs	r1, #32
	mov	r0, r3
	bl	nrf_uarte_shorts_disable
.L143:
	.loc 7 531 5
	ldr	r3, [sp, #4]
	ldr	r3, [r3]
	movs	r1, #4
	mov	r0, r3
	bl	nrf_uarte_task_trigger
	.loc 7 533 1
	nop
	add	sp, sp, #20
.LCFI131:
	@ sp needed
	ldr	pc, [sp], #4
.L145:
	.align	2
.L144:
	.word	m_cb
.LFE234:
	.size	nrfx_uarte_rx_abort, .-nrfx_uarte_rx_abort
	.section	.text.uarte_irq_handler,"ax",%progbits
	.align	1
	.syntax unified
	.thumb
	.thumb_func
	.fpu softvfp
	.type	uarte_irq_handler, %function
uarte_irq_handler:
.LFB235:
	.loc 7 537 1
	@ args = 0, pretend = 0, frame = 32
	@ frame_needed = 0, uses_anonymous_args = 0
	push	{lr}
.LCFI132:
	sub	sp, sp, #36
.LCFI133:
	str	r0, [sp, #4]
	str	r1, [sp]
	.loc 7 538 9
	mov	r1, #292
	ldr	r0, [sp, #4]
	bl	nrf_uarte_event_check
	mov	r3, r0
	.loc 7 538 8
	cmp	r3, #0
	beq	.L147
.LBB4:
	.loc 7 542 9
	mov	r1, #292
	ldr	r0, [sp, #4]
	bl	nrf_uarte_event_clear
	.loc 7 544 38
	movs	r3, #2
	strb	r3, [sp, #8]
	.loc 7 545 40
	ldr	r0, [sp, #4]
	bl	nrf_uarte_errorsrc_get_and_clear
	mov	r3, r0
	.loc 7 545 38
	str	r3, [sp, #20]
	.loc 7 546 40
	ldr	r0, [sp, #4]
	bl	nrf_uarte_rx_amount_get
	mov	r3, r0
	.loc 7 546 38
	str	r3, [sp, #16]
	.loc 7 547 44
	ldr	r3, [sp]
	ldr	r3, [r3, #12]
	.loc 7 547 38
	str	r3, [sp, #12]
	.loc 7 550 32
	ldr	r3, [sp]
	movs	r2, #0
	str	r2, [r3, #24]
	.loc 7 551 42
	ldr	r3, [sp]
	movs	r2, #0
	str	r2, [r3, #28]
	.loc 7 553 13
	ldr	r3, [sp]
	ldr	r3, [r3, #4]
	.loc 7 553 9
	ldr	r2, [sp]
	ldr	r1, [r2]
	add	r2, sp, #8
	mov	r0, r2
	blx	r3
.LVL2:
.LBE4:
	b	.L148
.L147:
	.loc 7 555 14
	mov	r1, #272
	ldr	r0, [sp, #4]
	bl	nrf_uarte_event_check
	mov	r3, r0
	.loc 7 555 13
	cmp	r3, #0
	beq	.L148
.LBB5:
	.loc 7 557 9
	mov	r1, #272
	ldr	r0, [sp, #4]
	bl	nrf_uarte_event_clear
	.loc 7 558 25
	ldr	r0, [sp, #4]
	bl	nrf_uarte_rx_amount_get
	str	r0, [sp, #28]
	.loc 7 561 27
	ldr	r3, [sp]
	ldr	r3, [r3, #24]
	.loc 7 561 12
	ldr	r2, [sp, #28]
	cmp	r2, r3
	bne	.L148
	.loc 7 563 21
	ldr	r3, [sp]
	ldr	r3, [r3, #28]
	.loc 7 563 16
	cmp	r3, #0
	beq	.L149
.LBB6:
	.loc 7 565 27
	ldr	r3, [sp]
	ldr	r3, [r3, #12]
	str	r3, [sp, #24]
	.loc 7 566 17
	movs	r1, #32
	ldr	r0, [sp, #4]
	bl	nrf_uarte_shorts_disable
	.loc 7 567 46
	ldr	r3, [sp]
	ldr	r2, [r3, #28]
	.loc 7 567 40
	ldr	r3, [sp]
	str	r2, [r3, #24]
	.loc 7 568 41
	ldr	r3, [sp]
	ldr	r2, [r3, #16]
	.loc 7 568 35
	ldr	r3, [sp]
	str	r2, [r3, #12]
	.loc 7 569 50
	ldr	r3, [sp]
	movs	r2, #0
	str	r2, [r3, #28]
	.loc 7 570 17
	ldr	r2, [sp, #24]
	ldr	r1, [sp, #28]
	ldr	r0, [sp]
	bl	rx_done_event
.LBE6:
	b	.L148
.L149:
	.loc 7 574 40
	ldr	r3, [sp]
	movs	r2, #0
	str	r2, [r3, #24]
	.loc 7 575 17
	ldr	r3, [sp]
	ldr	r3, [r3, #12]
	mov	r2, r3
	ldr	r1, [sp, #28]
	ldr	r0, [sp]
	bl	rx_done_event
.L148:
.LBE5:
	.loc 7 580 9
	mov	r1, #324
	ldr	r0, [sp, #4]
	bl	nrf_uarte_event_check
	mov	r3, r0
	.loc 7 580 8
	cmp	r3, #0
	beq	.L150
	.loc 7 582 9
	mov	r1, #324
	ldr	r0, [sp, #4]
	bl	nrf_uarte_event_clear
	.loc 7 584 17
	ldr	r3, [sp]
	ldr	r3, [r3, #24]
	.loc 7 584 12
	cmp	r3, #0
	beq	.L150
	.loc 7 586 36
	ldr	r3, [sp]
	movs	r2, #0
	str	r2, [r3, #24]
	.loc 7 589 46
	ldr	r3, [sp]
	movs	r2, #0
	str	r2, [r3, #28]
	.loc 7 590 13
	ldr	r0, [sp, #4]
	bl	nrf_uarte_rx_amount_get
	mov	r1, r0
	ldr	r3, [sp]
	ldr	r3, [r3, #12]
	mov	r2, r3
	ldr	r0, [sp]
	bl	rx_done_event
.L150:
	.loc 7 594 9
	mov	r1, #288
	ldr	r0, [sp, #4]
	bl	nrf_uarte_event_check
	mov	r3, r0
	.loc 7 594 8
	cmp	r3, #0
	beq	.L152
	.loc 7 596 9
	mov	r1, #288
	ldr	r0, [sp, #4]
	bl	nrf_uarte_event_clear
	.loc 7 597 17
	ldr	r3, [sp]
	ldr	r3, [r3, #20]
	.loc 7 597 12
	cmp	r3, #0
	beq	.L152
	.loc 7 599 13
	ldr	r0, [sp, #4]
	bl	nrf_uarte_tx_amount_get
	mov	r3, r0
	mov	r1, r3
	ldr	r0, [sp]
	bl	tx_done_event
.L152:
	.loc 7 602 1
	nop
	add	sp, sp, #36
.LCFI134:
	@ sp needed
	ldr	pc, [sp], #4
.LFE235:
	.size	uarte_irq_handler, .-uarte_irq_handler
	.section	.text.nrfx_uarte_0_irq_handler,"ax",%progbits
	.align	1
	.global	nrfx_uarte_0_irq_handler
	.syntax unified
	.thumb
	.thumb_func
	.fpu softvfp
	.type	nrfx_uarte_0_irq_handler, %function
nrfx_uarte_0_irq_handler:
.LFB236:
	.loc 7 606 1
	@ args = 0, pretend = 0, frame = 0
	@ frame_needed = 0, uses_anonymous_args = 0
	push	{r3, lr}
.LCFI135:
	.loc 7 607 5
	ldr	r1, .L154
	ldr	r0, .L154+4
	bl	uarte_irq_handler
	.loc 7 608 1
	nop
	pop	{r3, pc}
.L155:
	.align	2
.L154:
	.word	m_cb
	.word	1073750016
.LFE236:
	.size	nrfx_uarte_0_irq_handler, .-nrfx_uarte_0_irq_handler
	.section	.rodata.irq_handlers.7548,"a"
	.align	2
	.type	irq_handlers.7548, %object
	.size	irq_handlers.7548, 4
irq_handlers.7548:
	.word	nrfx_uarte_0_irq_handler
	.section	.debug_frame,"",%progbits
.Lframe0:
	.4byte	.LECIE0-.LSCIE0
.LSCIE0:
	.4byte	0xffffffff
	.byte	0x3
	.ascii	"\000"
	.uleb128 0x1
	.sleb128 -4
	.uleb128 0xe
	.byte	0xc
	.uleb128 0xd
	.uleb128 0
	.align	2
.LECIE0:
.LSFDE0:
	.4byte	.LEFDE0-.LASFDE0
.LASFDE0:
	.4byte	.Lframe0
	.4byte	.LFB108
	.4byte	.LFE108-.LFB108
	.byte	0x4
	.4byte	.LCFI0-.LFB108
	.byte	0xe
	.uleb128 0x8
	.byte	0x4
	.4byte	.LCFI1-.LCFI0
	.byte	0xe
	.uleb128 0
	.align	2
.LEFDE0:
.LSFDE2:
	.4byte	.LEFDE2-.LASFDE2
.LASFDE2:
	.4byte	.Lframe0
	.4byte	.LFB109
	.4byte	.LFE109-.LFB109
	.byte	0x4
	.4byte	.LCFI2-.LFB109
	.byte	0xe
	.uleb128 0x8
	.byte	0x4
	.4byte	.LCFI3-.LCFI2
	.byte	0xe
	.uleb128 0
	.align	2
.LEFDE2:
.LSFDE4:
	.4byte	.LEFDE4-.LASFDE4
.LASFDE4:
	.4byte	.Lframe0
	.4byte	.LFB114
	.4byte	.LFE114-.LFB114
	.byte	0x4
	.4byte	.LCFI4-.LFB114
	.byte	0xe
	.uleb128 0x8
	.byte	0x4
	.4byte	.LCFI5-.LCFI4
	.byte	0xe
	.uleb128 0
	.align	2
.LEFDE4:
.LSFDE6:
	.4byte	.LEFDE6-.LASFDE6
.LASFDE6:
	.4byte	.Lframe0
	.4byte	.LFB124
	.4byte	.LFE124-.LFB124
	.byte	0x4
	.4byte	.LCFI6-.LFB124
	.byte	0xe
	.uleb128 0x8
	.byte	0x4
	.4byte	.LCFI7-.LCFI6
	.byte	0xe
	.uleb128 0
	.align	2
.LEFDE6:
.LSFDE8:
	.4byte	.LEFDE8-.LASFDE8
.LASFDE8:
	.4byte	.Lframe0
	.4byte	.LFB126
	.4byte	.LFE126-.LFB126
	.byte	0x4
	.4byte	.LCFI8-.LFB126
	.byte	0xe
	.uleb128 0x8
	.byte	0x4
	.4byte	.LCFI9-.LCFI8
	.byte	0xe
	.uleb128 0
	.align	2
.LEFDE8:
.LSFDE10:
	.4byte	.LEFDE10-.LASFDE10
.LASFDE10:
	.4byte	.Lframe0
	.4byte	.LFB129
	.4byte	.LFE129-.LFB129
	.align	2
.LEFDE10:
.LSFDE12:
	.4byte	.LEFDE12-.LASFDE12
.LASFDE12:
	.4byte	.Lframe0
	.4byte	.LFB148
	.4byte	.LFE148-.LFB148
	.byte	0x4
	.4byte	.LCFI10-.LFB148
	.byte	0xe
	.uleb128 0x4
	.byte	0x8e
	.uleb128 0x1
	.byte	0x4
	.4byte	.LCFI11-.LCFI10
	.byte	0xe
	.uleb128 0x10
	.byte	0x4
	.4byte	.LCFI12-.LCFI11
	.byte	0xe
	.uleb128 0x4
	.align	2
.LEFDE12:
.LSFDE14:
	.4byte	.LEFDE14-.LASFDE14
.LASFDE14:
	.4byte	.Lframe0
	.4byte	.LFB149
	.4byte	.LFE149-.LFB149
	.byte	0x4
	.4byte	.LCFI13-.LFB149
	.byte	0xe
	.uleb128 0x4
	.byte	0x8e
	.uleb128 0x1
	.byte	0x4
	.4byte	.LCFI14-.LCFI13
	.byte	0xe
	.uleb128 0x10
	.byte	0x4
	.4byte	.LCFI15-.LCFI14
	.byte	0xe
	.uleb128 0x4
	.align	2
.LEFDE14:
.LSFDE16:
	.4byte	.LEFDE16-.LASFDE16
.LASFDE16:
	.4byte	.Lframe0
	.4byte	.LFB151
	.4byte	.LFE151-.LFB151
	.byte	0x4
	.4byte	.LCFI16-.LFB151
	.byte	0xe
	.uleb128 0x4
	.byte	0x8e
	.uleb128 0x1
	.byte	0x4
	.4byte	.LCFI17-.LCFI16
	.byte	0xe
	.uleb128 0x10
	.byte	0x4
	.4byte	.LCFI18-.LCFI17
	.byte	0xe
	.uleb128 0x4
	.align	2
.LEFDE16:
.LSFDE18:
	.4byte	.LEFDE18-.LASFDE18
.LASFDE18:
	.4byte	.Lframe0
	.4byte	.LFB156
	.4byte	.LFE156-.LFB156
	.byte	0x4
	.4byte	.LCFI19-.LFB156
	.byte	0xe
	.uleb128 0x10
	.byte	0x4
	.4byte	.LCFI20-.LCFI19
	.byte	0xe
	.uleb128 0
	.align	2
.LEFDE18:
.LSFDE20:
	.4byte	.LEFDE20-.LASFDE20
.LASFDE20:
	.4byte	.Lframe0
	.4byte	.LFB157
	.4byte	.LFE157-.LFB157
	.byte	0x4
	.4byte	.LCFI21-.LFB157
	.byte	0xe
	.uleb128 0x8
	.byte	0x4
	.4byte	.LCFI22-.LCFI21
	.byte	0xe
	.uleb128 0
	.align	2
.LEFDE20:
.LSFDE22:
	.4byte	.LEFDE22-.LASFDE22
.LASFDE22:
	.4byte	.Lframe0
	.4byte	.LFB159
	.4byte	.LFE159-.LFB159
	.byte	0x4
	.4byte	.LCFI23-.LFB159
	.byte	0xe
	.uleb128 0x8
	.byte	0x4
	.4byte	.LCFI24-.LCFI23
	.byte	0xe
	.uleb128 0
	.align	2
.LEFDE22:
.LSFDE24:
	.4byte	.LEFDE24-.LASFDE24
.LASFDE24:
	.4byte	.Lframe0
	.4byte	.LFB160
	.4byte	.LFE160-.LFB160
	.byte	0x4
	.4byte	.LCFI25-.LFB160
	.byte	0xe
	.uleb128 0x8
	.byte	0x4
	.4byte	.LCFI26-.LCFI25
	.byte	0xe
	.uleb128 0
	.align	2
.LEFDE24:
.LSFDE26:
	.4byte	.LEFDE26-.LASFDE26
.LASFDE26:
	.4byte	.Lframe0
	.4byte	.LFB161
	.4byte	.LFE161-.LFB161
	.byte	0x4
	.4byte	.LCFI27-.LFB161
	.byte	0xe
	.uleb128 0x8
	.byte	0x4
	.4byte	.LCFI28-.LCFI27
	.byte	0xe
	.uleb128 0
	.align	2
.LEFDE26:
.LSFDE28:
	.4byte	.LEFDE28-.LASFDE28
.LASFDE28:
	.4byte	.Lframe0
	.4byte	.LFB163
	.4byte	.LFE163-.LFB163
	.byte	0x4
	.4byte	.LCFI29-.LFB163
	.byte	0xe
	.uleb128 0x8
	.byte	0x4
	.4byte	.LCFI30-.LCFI29
	.byte	0xe
	.uleb128 0
	.align	2
.LEFDE28:
.LSFDE30:
	.4byte	.LEFDE30-.LASFDE30
.LASFDE30:
	.4byte	.Lframe0
	.4byte	.LFB164
	.4byte	.LFE164-.LFB164
	.byte	0x4
	.4byte	.LCFI31-.LFB164
	.byte	0xe
	.uleb128 0x10
	.byte	0x4
	.4byte	.LCFI32-.LCFI31
	.byte	0xe
	.uleb128 0
	.align	2
.LEFDE30:
.LSFDE32:
	.4byte	.LEFDE32-.LASFDE32
.LASFDE32:
	.4byte	.Lframe0
	.4byte	.LFB165
	.4byte	.LFE165-.LFB165
	.byte	0x4
	.4byte	.LCFI33-.LFB165
	.byte	0xe
	.uleb128 0x8
	.byte	0x4
	.4byte	.LCFI34-.LCFI33
	.byte	0xe
	.uleb128 0
	.align	2
.LEFDE32:
.LSFDE34:
	.4byte	.LEFDE34-.LASFDE34
.LASFDE34:
	.4byte	.Lframe0
	.4byte	.LFB166
	.4byte	.LFE166-.LFB166
	.byte	0x4
	.4byte	.LCFI35-.LFB166
	.byte	0xe
	.uleb128 0x8
	.byte	0x4
	.4byte	.LCFI36-.LCFI35
	.byte	0xe
	.uleb128 0
	.align	2
.LEFDE34:
.LSFDE36:
	.4byte	.LEFDE36-.LASFDE36
.LASFDE36:
	.4byte	.Lframe0
	.4byte	.LFB167
	.4byte	.LFE167-.LFB167
	.byte	0x4
	.4byte	.LCFI37-.LFB167
	.byte	0xe
	.uleb128 0x10
	.byte	0x4
	.4byte	.LCFI38-.LCFI37
	.byte	0xe
	.uleb128 0
	.align	2
.LEFDE36:
.LSFDE38:
	.4byte	.LEFDE38-.LASFDE38
.LASFDE38:
	.4byte	.Lframe0
	.4byte	.LFB168
	.4byte	.LFE168-.LFB168
	.byte	0x4
	.4byte	.LCFI39-.LFB168
	.byte	0xe
	.uleb128 0x4
	.byte	0x8e
	.uleb128 0x1
	.byte	0x4
	.4byte	.LCFI40-.LCFI39
	.byte	0xe
	.uleb128 0x10
	.byte	0x4
	.4byte	.LCFI41-.LCFI40
	.byte	0xe
	.uleb128 0x4
	.align	2
.LEFDE38:
.LSFDE40:
	.4byte	.LEFDE40-.LASFDE40
.LASFDE40:
	.4byte	.Lframe0
	.4byte	.LFB169
	.4byte	.LFE169-.LFB169
	.byte	0x4
	.4byte	.LCFI42-.LFB169
	.byte	0xe
	.uleb128 0x8
	.byte	0x4
	.4byte	.LCFI43-.LCFI42
	.byte	0xe
	.uleb128 0
	.align	2
.LEFDE40:
.LSFDE42:
	.4byte	.LEFDE42-.LASFDE42
.LASFDE42:
	.4byte	.Lframe0
	.4byte	.LFB170
	.4byte	.LFE170-.LFB170
	.byte	0x4
	.4byte	.LCFI44-.LFB170
	.byte	0xe
	.uleb128 0x8
	.byte	0x4
	.4byte	.LCFI45-.LCFI44
	.byte	0xe
	.uleb128 0
	.align	2
.LEFDE42:
.LSFDE44:
	.4byte	.LEFDE44-.LASFDE44
.LASFDE44:
	.4byte	.Lframe0
	.4byte	.LFB171
	.4byte	.LFE171-.LFB171
	.byte	0x4
	.4byte	.LCFI46-.LFB171
	.byte	0xe
	.uleb128 0x8
	.byte	0x4
	.4byte	.LCFI47-.LCFI46
	.byte	0xe
	.uleb128 0
	.align	2
.LEFDE44:
.LSFDE46:
	.4byte	.LEFDE46-.LASFDE46
.LASFDE46:
	.4byte	.Lframe0
	.4byte	.LFB172
	.4byte	.LFE172-.LFB172
	.byte	0x4
	.4byte	.LCFI48-.LFB172
	.byte	0xe
	.uleb128 0x8
	.byte	0x4
	.4byte	.LCFI49-.LCFI48
	.byte	0xe
	.uleb128 0
	.align	2
.LEFDE46:
.LSFDE48:
	.4byte	.LEFDE48-.LASFDE48
.LASFDE48:
	.4byte	.Lframe0
	.4byte	.LFB173
	.4byte	.LFE173-.LFB173
	.byte	0x4
	.4byte	.LCFI50-.LFB173
	.byte	0xe
	.uleb128 0x10
	.byte	0x4
	.4byte	.LCFI51-.LCFI50
	.byte	0xe
	.uleb128 0
	.align	2
.LEFDE48:
.LSFDE50:
	.4byte	.LEFDE50-.LASFDE50
.LASFDE50:
	.4byte	.Lframe0
	.4byte	.LFB174
	.4byte	.LFE174-.LFB174
	.byte	0x4
	.4byte	.LCFI52-.LFB174
	.byte	0xe
	.uleb128 0x4
	.byte	0x8e
	.uleb128 0x1
	.byte	0x4
	.4byte	.LCFI53-.LCFI52
	.byte	0xe
	.uleb128 0x10
	.byte	0x4
	.4byte	.LCFI54-.LCFI53
	.byte	0xe
	.uleb128 0x4
	.align	2
.LEFDE50:
.LSFDE52:
	.4byte	.LEFDE52-.LASFDE52
.LASFDE52:
	.4byte	.Lframe0
	.4byte	.LFB175
	.4byte	.LFE175-.LFB175
	.byte	0x4
	.4byte	.LCFI55-.LFB175
	.byte	0xe
	.uleb128 0x8
	.byte	0x4
	.4byte	.LCFI56-.LCFI55
	.byte	0xe
	.uleb128 0
	.align	2
.LEFDE52:
.LSFDE54:
	.4byte	.LEFDE54-.LASFDE54
.LASFDE54:
	.4byte	.Lframe0
	.4byte	.LFB177
	.4byte	.LFE177-.LFB177
	.byte	0x4
	.4byte	.LCFI57-.LFB177
	.byte	0xe
	.uleb128 0x8
	.byte	0x4
	.4byte	.LCFI58-.LCFI57
	.byte	0xe
	.uleb128 0
	.align	2
.LEFDE54:
.LSFDE56:
	.4byte	.LEFDE56-.LASFDE56
.LASFDE56:
	.4byte	.Lframe0
	.4byte	.LFB178
	.4byte	.LFE178-.LFB178
	.byte	0x4
	.4byte	.LCFI59-.LFB178
	.byte	0xe
	.uleb128 0x8
	.byte	0x4
	.4byte	.LCFI60-.LCFI59
	.byte	0xe
	.uleb128 0
	.align	2
.LEFDE56:
.LSFDE58:
	.4byte	.LEFDE58-.LASFDE58
.LASFDE58:
	.4byte	.Lframe0
	.4byte	.LFB179
	.4byte	.LFE179-.LFB179
	.byte	0x4
	.4byte	.LCFI61-.LFB179
	.byte	0xe
	.uleb128 0x10
	.byte	0x4
	.4byte	.LCFI62-.LCFI61
	.byte	0xe
	.uleb128 0
	.align	2
.LEFDE58:
.LSFDE60:
	.4byte	.LEFDE60-.LASFDE60
.LASFDE60:
	.4byte	.Lframe0
	.4byte	.LFB180
	.4byte	.LFE180-.LFB180
	.byte	0x4
	.4byte	.LCFI63-.LFB180
	.byte	0xe
	.uleb128 0x8
	.byte	0x4
	.4byte	.LCFI64-.LCFI63
	.byte	0xe
	.uleb128 0
	.align	2
.LEFDE60:
.LSFDE62:
	.4byte	.LEFDE62-.LASFDE62
.LASFDE62:
	.4byte	.Lframe0
	.4byte	.LFB181
	.4byte	.LFE181-.LFB181
	.byte	0x4
	.4byte	.LCFI65-.LFB181
	.byte	0xe
	.uleb128 0x10
	.byte	0x4
	.4byte	.LCFI66-.LCFI65
	.byte	0xe
	.uleb128 0
	.align	2
.LEFDE62:
.LSFDE64:
	.4byte	.LEFDE64-.LASFDE64
.LASFDE64:
	.4byte	.Lframe0
	.4byte	.LFB182
	.4byte	.LFE182-.LFB182
	.byte	0x4
	.4byte	.LCFI67-.LFB182
	.byte	0xe
	.uleb128 0x8
	.byte	0x4
	.4byte	.LCFI68-.LCFI67
	.byte	0xe
	.uleb128 0
	.align	2
.LEFDE64:
.LSFDE66:
	.4byte	.LEFDE66-.LASFDE66
.LASFDE66:
	.4byte	.Lframe0
	.4byte	.LFB185
	.4byte	.LFE185-.LFB185
	.byte	0x4
	.4byte	.LCFI69-.LFB185
	.byte	0xe
	.uleb128 0x8
	.byte	0x4
	.4byte	.LCFI70-.LCFI69
	.byte	0xe
	.uleb128 0
	.align	2
.LEFDE66:
.LSFDE68:
	.4byte	.LEFDE68-.LASFDE68
.LASFDE68:
	.4byte	.Lframe0
	.4byte	.LFB188
	.4byte	.LFE188-.LFB188
	.byte	0x4
	.4byte	.LCFI71-.LFB188
	.byte	0xe
	.uleb128 0x4
	.byte	0x8e
	.uleb128 0x1
	.byte	0x4
	.4byte	.LCFI72-.LCFI71
	.byte	0xe
	.uleb128 0x18
	.byte	0x4
	.4byte	.LCFI73-.LCFI72
	.byte	0xe
	.uleb128 0x4
	.align	2
.LEFDE68:
.LSFDE70:
	.4byte	.LEFDE70-.LASFDE70
.LASFDE70:
	.4byte	.Lframe0
	.4byte	.LFB189
	.4byte	.LFE189-.LFB189
	.byte	0x4
	.4byte	.LCFI74-.LFB189
	.byte	0xe
	.uleb128 0x4
	.byte	0x8e
	.uleb128 0x1
	.byte	0x4
	.4byte	.LCFI75-.LCFI74
	.byte	0xe
	.uleb128 0x18
	.byte	0x4
	.4byte	.LCFI76-.LCFI75
	.byte	0xe
	.uleb128 0x4
	.align	2
.LEFDE70:
.LSFDE72:
	.4byte	.LEFDE72-.LASFDE72
.LASFDE72:
	.4byte	.Lframe0
	.4byte	.LFB190
	.4byte	.LFE190-.LFB190
	.byte	0x4
	.4byte	.LCFI77-.LFB190
	.byte	0xe
	.uleb128 0x4
	.byte	0x8e
	.uleb128 0x1
	.byte	0x4
	.4byte	.LCFI78-.LCFI77
	.byte	0xe
	.uleb128 0x18
	.byte	0x4
	.4byte	.LCFI79-.LCFI78
	.byte	0xe
	.uleb128 0x4
	.align	2
.LEFDE72:
.LSFDE74:
	.4byte	.LEFDE74-.LASFDE74
.LASFDE74:
	.4byte	.Lframe0
	.4byte	.LFB191
	.4byte	.LFE191-.LFB191
	.byte	0x4
	.4byte	.LCFI80-.LFB191
	.byte	0xe
	.uleb128 0x4
	.byte	0x8e
	.uleb128 0x1
	.byte	0x4
	.4byte	.LCFI81-.LCFI80
	.byte	0xe
	.uleb128 0x18
	.byte	0x4
	.4byte	.LCFI82-.LCFI81
	.byte	0xe
	.uleb128 0x4
	.align	2
.LEFDE74:
.LSFDE76:
	.4byte	.LEFDE76-.LASFDE76
.LASFDE76:
	.4byte	.Lframe0
	.4byte	.LFB197
	.4byte	.LFE197-.LFB197
	.byte	0x4
	.4byte	.LCFI83-.LFB197
	.byte	0xe
	.uleb128 0x4
	.byte	0x8e
	.uleb128 0x1
	.byte	0x4
	.4byte	.LCFI84-.LCFI83
	.byte	0xe
	.uleb128 0x18
	.byte	0x4
	.4byte	.LCFI85-.LCFI84
	.byte	0xe
	.uleb128 0x4
	.align	2
.LEFDE76:
.LSFDE78:
	.4byte	.LEFDE78-.LASFDE78
.LASFDE78:
	.4byte	.Lframe0
	.4byte	.LFB214
	.4byte	.LFE214-.LFB214
	.byte	0x4
	.4byte	.LCFI86-.LFB214
	.byte	0xe
	.uleb128 0x8
	.byte	0x4
	.4byte	.LCFI87-.LCFI86
	.byte	0xe
	.uleb128 0
	.align	2
.LEFDE78:
.LSFDE80:
	.4byte	.LEFDE80-.LASFDE80
.LASFDE80:
	.4byte	.Lframe0
	.4byte	.LFB220
	.4byte	.LFE220-.LFB220
	.byte	0x4
	.4byte	.LCFI88-.LFB220
	.byte	0xe
	.uleb128 0x4
	.byte	0x8e
	.uleb128 0x1
	.byte	0x4
	.4byte	.LCFI89-.LCFI88
	.byte	0xe
	.uleb128 0x10
	.byte	0x4
	.4byte	.LCFI90-.LCFI89
	.byte	0xe
	.uleb128 0x4
	.align	2
.LEFDE80:
.LSFDE82:
	.4byte	.LEFDE82-.LASFDE82
.LASFDE82:
	.4byte	.Lframe0
	.4byte	.LFB221
	.4byte	.LFE221-.LFB221
	.byte	0x4
	.4byte	.LCFI91-.LFB221
	.byte	0xe
	.uleb128 0x4
	.byte	0x8e
	.uleb128 0x1
	.byte	0x4
	.4byte	.LCFI92-.LCFI91
	.byte	0xe
	.uleb128 0x10
	.byte	0x4
	.4byte	.LCFI93-.LCFI92
	.byte	0xe
	.uleb128 0x4
	.align	2
.LEFDE82:
.LSFDE84:
	.4byte	.LEFDE84-.LASFDE84
.LASFDE84:
	.4byte	.Lframe0
	.4byte	.LFB222
	.4byte	.LFE222-.LFB222
	.byte	0x4
	.4byte	.LCFI94-.LFB222
	.byte	0xe
	.uleb128 0x4
	.byte	0x8e
	.uleb128 0x1
	.byte	0x4
	.4byte	.LCFI95-.LCFI94
	.byte	0xe
	.uleb128 0x10
	.byte	0x4
	.4byte	.LCFI96-.LCFI95
	.byte	0xe
	.uleb128 0x4
	.align	2
.LEFDE84:
.LSFDE86:
	.4byte	.LEFDE86-.LASFDE86
.LASFDE86:
	.4byte	.Lframe0
	.4byte	.LFB223
	.4byte	.LFE223-.LFB223
	.byte	0x4
	.4byte	.LCFI97-.LFB223
	.byte	0xe
	.uleb128 0x4
	.byte	0x8e
	.uleb128 0x1
	.byte	0x4
	.4byte	.LCFI98-.LCFI97
	.byte	0xe
	.uleb128 0x20
	.byte	0x4
	.4byte	.LCFI99-.LCFI98
	.byte	0xe
	.uleb128 0x4
	.align	2
.LEFDE86:
.LSFDE88:
	.4byte	.LEFDE88-.LASFDE88
.LASFDE88:
	.4byte	.Lframe0
	.4byte	.LFB224
	.4byte	.LFE224-.LFB224
	.byte	0x4
	.4byte	.LCFI100-.LFB224
	.byte	0xe
	.uleb128 0x4
	.byte	0x8e
	.uleb128 0x1
	.byte	0x4
	.4byte	.LCFI101-.LCFI100
	.byte	0xe
	.uleb128 0x20
	.byte	0x4
	.4byte	.LCFI102-.LCFI101
	.byte	0xe
	.uleb128 0x4
	.align	2
.LEFDE88:
.LSFDE90:
	.4byte	.LEFDE90-.LASFDE90
.LASFDE90:
	.4byte	.Lframe0
	.4byte	.LFB225
	.4byte	.LFE225-.LFB225
	.byte	0x4
	.4byte	.LCFI103-.LFB225
	.byte	0xe
	.uleb128 0x4
	.byte	0x8e
	.uleb128 0x1
	.byte	0x4
	.4byte	.LCFI104-.LCFI103
	.byte	0xe
	.uleb128 0x18
	.byte	0x4
	.4byte	.LCFI105-.LCFI104
	.byte	0xe
	.uleb128 0x4
	.align	2
.LEFDE90:
.LSFDE92:
	.4byte	.LEFDE92-.LASFDE92
.LASFDE92:
	.4byte	.Lframe0
	.4byte	.LFB226
	.4byte	.LFE226-.LFB226
	.byte	0x4
	.4byte	.LCFI106-.LFB226
	.byte	0xe
	.uleb128 0x4
	.byte	0x8e
	.uleb128 0x1
	.byte	0x4
	.4byte	.LCFI107-.LCFI106
	.byte	0xe
	.uleb128 0x28
	.byte	0x4
	.4byte	.LCFI108-.LCFI107
	.byte	0xe
	.uleb128 0x4
	.align	2
.LEFDE92:
.LSFDE94:
	.4byte	.LEFDE94-.LASFDE94
.LASFDE94:
	.4byte	.Lframe0
	.4byte	.LFB227
	.4byte	.LFE227-.LFB227
	.byte	0x4
	.4byte	.LCFI109-.LFB227
	.byte	0xe
	.uleb128 0x8
	.byte	0x4
	.4byte	.LCFI110-.LCFI109
	.byte	0xe
	.uleb128 0
	.align	2
.LEFDE94:
.LSFDE96:
	.4byte	.LEFDE96-.LASFDE96
.LASFDE96:
	.4byte	.Lframe0
	.4byte	.LFB228
	.4byte	.LFE228-.LFB228
	.byte	0x4
	.4byte	.LCFI111-.LFB228
	.byte	0xe
	.uleb128 0x4
	.byte	0x8e
	.uleb128 0x1
	.byte	0x4
	.4byte	.LCFI112-.LCFI111
	.byte	0xe
	.uleb128 0x30
	.byte	0x4
	.4byte	.LCFI113-.LCFI112
	.byte	0xe
	.uleb128 0x4
	.align	2
.LEFDE96:
.LSFDE98:
	.4byte	.LEFDE98-.LASFDE98
.LASFDE98:
	.4byte	.Lframe0
	.4byte	.LFB229
	.4byte	.LFE229-.LFB229
	.byte	0x4
	.4byte	.LCFI114-.LFB229
	.byte	0xe
	.uleb128 0x4
	.byte	0x8e
	.uleb128 0x1
	.byte	0x4
	.4byte	.LCFI115-.LCFI114
	.byte	0xe
	.uleb128 0x10
	.byte	0x4
	.4byte	.LCFI116-.LCFI115
	.byte	0xe
	.uleb128 0x4
	.align	2
.LEFDE98:
.LSFDE100:
	.4byte	.LEFDE100-.LASFDE100
.LASFDE100:
	.4byte	.Lframe0
	.4byte	.LFB230
	.4byte	.LFE230-.LFB230
	.byte	0x4
	.4byte	.LCFI117-.LFB230
	.byte	0xe
	.uleb128 0x4
	.byte	0x8e
	.uleb128 0x1
	.byte	0x4
	.4byte	.LCFI118-.LCFI117
	.byte	0xe
	.uleb128 0x10
	.byte	0x4
	.4byte	.LCFI119-.LCFI118
	.byte	0xe
	.uleb128 0x4
	.align	2
.LEFDE100:
.LSFDE102:
	.4byte	.LEFDE102-.LASFDE102
.LASFDE102:
	.4byte	.Lframe0
	.4byte	.LFB231
	.4byte	.LFE231-.LFB231
	.byte	0x4
	.4byte	.LCFI120-.LFB231
	.byte	0xe
	.uleb128 0x4
	.byte	0x8e
	.uleb128 0x1
	.byte	0x4
	.4byte	.LCFI121-.LCFI120
	.byte	0xe
	.uleb128 0x28
	.byte	0x4
	.4byte	.LCFI122-.LCFI121
	.byte	0xe
	.uleb128 0x4
	.align	2
.LEFDE102:
.LSFDE104:
	.4byte	.LEFDE104-.LASFDE104
.LASFDE104:
	.4byte	.Lframe0
	.4byte	.LFB232
	.4byte	.LFE232-.LFB232
	.byte	0x4
	.4byte	.LCFI123-.LFB232
	.byte	0xe
	.uleb128 0x4
	.byte	0x8e
	.uleb128 0x1
	.byte	0x4
	.4byte	.LCFI124-.LCFI123
	.byte	0xe
	.uleb128 0x20
	.byte	0x4
	.4byte	.LCFI125-.LCFI124
	.byte	0xe
	.uleb128 0x4
	.align	2
.LEFDE104:
.LSFDE106:
	.4byte	.LEFDE106-.LASFDE106
.LASFDE106:
	.4byte	.Lframe0
	.4byte	.LFB233
	.4byte	.LFE233-.LFB233
	.byte	0x4
	.4byte	.LCFI126-.LFB233
	.byte	0xe
	.uleb128 0x4
	.byte	0x8e
	.uleb128 0x1
	.byte	0x4
	.4byte	.LCFI127-.LCFI126
	.byte	0xe
	.uleb128 0x18
	.byte	0x4
	.4byte	.LCFI128-.LCFI127
	.byte	0xe
	.uleb128 0x4
	.align	2
.LEFDE106:
.LSFDE108:
	.4byte	.LEFDE108-.LASFDE108
.LASFDE108:
	.4byte	.Lframe0
	.4byte	.LFB234
	.4byte	.LFE234-.LFB234
	.byte	0x4
	.4byte	.LCFI129-.LFB234
	.byte	0xe
	.uleb128 0x4
	.byte	0x8e
	.uleb128 0x1
	.byte	0x4
	.4byte	.LCFI130-.LCFI129
	.byte	0xe
	.uleb128 0x18
	.byte	0x4
	.4byte	.LCFI131-.LCFI130
	.byte	0xe
	.uleb128 0x4
	.align	2
.LEFDE108:
.LSFDE110:
	.4byte	.LEFDE110-.LASFDE110
.LASFDE110:
	.4byte	.Lframe0
	.4byte	.LFB235
	.4byte	.LFE235-.LFB235
	.byte	0x4
	.4byte	.LCFI132-.LFB235
	.byte	0xe
	.uleb128 0x4
	.byte	0x8e
	.uleb128 0x1
	.byte	0x4
	.4byte	.LCFI133-.LCFI132
	.byte	0xe
	.uleb128 0x28
	.byte	0x4
	.4byte	.LCFI134-.LCFI133
	.byte	0xe
	.uleb128 0x4
	.align	2
.LEFDE110:
.LSFDE112:
	.4byte	.LEFDE112-.LASFDE112
.LASFDE112:
	.4byte	.Lframe0
	.4byte	.LFB236
	.4byte	.LFE236-.LFB236
	.byte	0x4
	.4byte	.LCFI135-.LFB236
	.byte	0xe
	.uleb128 0x8
	.byte	0x83
	.uleb128 0x2
	.byte	0x8e
	.uleb128 0x1
	.align	2
.LEFDE112:
	.text
.Letext0:
	.file 8 "C:/gu/arm_segger_embedded_studio_v420a_win_x64_nordic/include/stdint.h"
	.file 9 "C:/gu/arm_segger_embedded_studio_v420a_win_x64_nordic/include/__crossworks.h"
	.file 10 "C:/gu/arm_segger_embedded_studio_v420a_win_x64_nordic/include/stddef.h"
	.file 11 "./../../../../../../../modules/nrfx/mdk/nrf52840.h"
	.file 12 "./../../../../../../../modules/nrfx/mdk/system_nrf52840.h"
	.file 13 "./../../../../../../../components/libraries/util/app_util.h"
	.file 14 "C:/gu/arm_segger_embedded_studio_v420a_win_x64_nordic/include/stdio.h"
	.file 15 "./../../../../../../../components/libraries/util/sdk_errors.h"
	.file 16 "./../../../../../../../modules/nrfx/drivers/include/nrfx_uarte.h"
	.file 17 "./../../../../../../../components/libraries/log/nrf_log_types.h"
	.file 18 "./../../../../../../../components/libraries/log/nrf_log_instance.h"
	.file 19 "./../../../../../../../components/libraries/log/src/nrf_log_internal.h"
	.file 20 "./../../../../../../../integration/nrfx/nrfx_log.h"