	.cpu cortex-m4
	.eabi_attribute 20, 1
	.eabi_attribute 21, 1
	.eabi_attribute 23, 3
	.eabi_attribute 24, 1
	.eabi_attribute 25, 1
	.eabi_attribute 26, 1
	.eabi_attribute 30, 6
	.eabi_attribute 34, 1
	.eabi_attribute 18, 4
	.file	"nrfx_uart.c"
	.text
.Ltext0:
	.section	.text.NVIC_EnableIRQ,"ax",%progbits
	.align	1
	.syntax unified
	.thumb
	.thumb_func
	.fpu softvfp
	.type	NVIC_EnableIRQ, %function
NVIC_EnableIRQ:
.LFB108:
	.file 1 "./../../../../../../../components/toolchain/cmsis/include/core_cm4.h"
	.loc 1 1627 1
	@ args = 0, pretend = 0, frame = 8
	@ frame_needed = 0, uses_anonymous_args = 0
	@ link register save eliminated.
	sub	sp, sp, #8
.LCFI0:
	mov	r3, r0
	strb	r3, [sp, #7]
	.loc 1 1628 97
	ldrb	r3, [sp, #7]	@ zero_extendqisi2
	and	r2, r3, #31
	.loc 1 1628 7
	ldr	r1, .L2
	.loc 1 1628 16
	ldrsb	r3, [sp, #7]
	.loc 1 1628 41
	lsrs	r3, r3, #5
	.loc 1 1628 67
	movs	r0, #1
	lsl	r2, r0, r2
	.loc 1 1628 50
	str	r2, [r1, r3, lsl #2]
	.loc 1 1629 1
	nop
	add	sp, sp, #8
.LCFI1:
	@ sp needed
	bx	lr
.L3:
	.align	2
.L2:
	.word	-536813312
.LFE108:
	.size	NVIC_EnableIRQ, .-NVIC_EnableIRQ
	.section	.text.NVIC_DisableIRQ,"ax",%progbits
	.align	1
	.syntax unified
	.thumb
	.thumb_func
	.fpu softvfp
	.type	NVIC_DisableIRQ, %function
NVIC_DisableIRQ:
.LFB109:
	.loc 1 1638 1
	@ args = 0, pretend = 0, frame = 8
	@ frame_needed = 0, uses_anonymous_args = 0
	@ link register save eliminated.
	sub	sp, sp, #8
.LCFI2:
	mov	r3, r0
	strb	r3, [sp, #7]
	.loc 1 1639 97
	ldrb	r3, [sp, #7]	@ zero_extendqisi2
	and	r2, r3, #31
	.loc 1 1639 7
	ldr	r1, .L5
	.loc 1 1639 16
	ldrsb	r3, [sp, #7]
	.loc 1 1639 41
	lsrs	r3, r3, #5
	.loc 1 1639 67
	movs	r0, #1
	lsl	r2, r0, r2
	.loc 1 1639 50
	adds	r3, r3, #32
	str	r2, [r1, r3, lsl #2]
	.loc 1 1640 1
	nop
	add	sp, sp, #8
.LCFI3:
	@ sp needed
	bx	lr
.L6:
	.align	2
.L5:
	.word	-536813312
.LFE109:
	.size	NVIC_DisableIRQ, .-NVIC_DisableIRQ
	.section	.text.NVIC_SetPriority,"ax",%progbits
	.align	1
	.syntax unified
	.thumb
	.thumb_func
	.fpu softvfp
	.type	NVIC_SetPriority, %function
NVIC_SetPriority:
.LFB114:
	.loc 1 1699 1
	@ args = 0, pretend = 0, frame = 8
	@ frame_needed = 0, uses_anonymous_args = 0
	@ link register save eliminated.
	sub	sp, sp, #8
.LCFI4:
	mov	r3, r0
	str	r1, [sp]
	strb	r3, [sp, #7]
	.loc 1 1700 6
	ldrsb	r3, [sp, #7]
	cmp	r3, #0
	bge	.L8
	.loc 1 1702 57
	ldr	r3, [sp]
	uxtb	r2, r3
	.loc 1 1702 8
	ldr	r1, .L11
	.loc 1 1702 41
	ldrb	r3, [sp, #7]	@ zero_extendqisi2
	and	r3, r3, #15
	.loc 1 1702 49
	subs	r3, r3, #4
	.loc 1 1702 57
	lsls	r2, r2, #5
	uxtb	r2, r2
	.loc 1 1702 55
	add	r3, r3, r1
	strb	r2, [r3, #24]
	.loc 1 1708 1
	b	.L10
.L8:
	.loc 1 1706 57
	ldr	r3, [sp]
	uxtb	r2, r3
	.loc 1 1706 9
	ldr	r1, .L11+4
	.loc 1 1706 15
	ldrsb	r3, [sp, #7]
	.loc 1 1706 57
	lsls	r2, r2, #5
	uxtb	r2, r2
	.loc 1 1706 55
	add	r3, r3, r1
	strb	r2, [r3, #768]
.L10:
	.loc 1 1708 1
	nop
	add	sp, sp, #8
.LCFI5:
	@ sp needed
	bx	lr
.L12:
	.align	2
.L11:
	.word	-536810240
	.word	-536813312
.LFE114:
	.size	NVIC_SetPriority, .-NVIC_SetPriority
	.section	.text.nrfx_get_irq_number,"ax",%progbits
	.align	1
	.syntax unified
	.thumb
	.thumb_func
	.fpu softvfp
	.type	nrfx_get_irq_number, %function
nrfx_get_irq_number:
.LFB126:
	.file 2 "./../../../../../../../modules/nrfx/drivers/nrfx_common.h"
	.loc 2 313 1
	@ args = 0, pretend = 0, frame = 8
	@ frame_needed = 0, uses_anonymous_args = 0
	@ link register save eliminated.
	sub	sp, sp, #8
.LCFI6:
	str	r0, [sp, #4]
	.loc 2 314 23
	ldr	r3, [sp, #4]
	lsrs	r3, r3, #12
	.loc 2 314 12
	sxtb	r3, r3
	.loc 2 315 1
	mov	r0, r3
	add	sp, sp, #8
.LCFI7:
	@ sp needed
	bx	lr
.LFE126:
	.size	nrfx_get_irq_number, .-nrfx_get_irq_number
	.section	.text.sd_mbr_command,"ax",%progbits
	.align	1
	.syntax unified
	.thumb
	.thumb_func
	.fpu softvfp
	.type	sd_mbr_command, %function
sd_mbr_command:
.LFB129:
	.file 3 "./../../../../../../../components/softdevice/mbr/nrf52840/headers/nrf_mbr.h"
	.loc 3 257 1
	@ Naked Function: prologue and epilogue provided by programmer.
	@ args = 0, pretend = 0, frame = 0
	@ frame_needed = 0, uses_anonymous_args = 0
	.loc 3 257 1
	.syntax unified
@ 257 "./../../../../../../../components/softdevice/mbr/nrf52840/headers/nrf_mbr.h" 1
	svc #24
bx r14
@ 0 "" 2
	.thumb
	.syntax unified
	nop
	mov	r0, r3
.LFE129:
	.size	sd_mbr_command, .-sd_mbr_command
	.section	.text._NRFX_IRQ_PRIORITY_SET,"ax",%progbits
	.align	1
	.syntax unified
	.thumb
	.thumb_func
	.fpu softvfp
	.type	_NRFX_IRQ_PRIORITY_SET, %function
_NRFX_IRQ_PRIORITY_SET:
.LFB148:
	.file 4 "./../../../../../../../integration/nrfx/nrfx_glue.h"
	.loc 4 106 1
	@ args = 0, pretend = 0, frame = 8
	@ frame_needed = 0, uses_anonymous_args = 0
	push	{lr}
.LCFI8:
	sub	sp, sp, #12
.LCFI9:
	mov	r3, r0
	mov	r2, r1
	strb	r3, [sp, #7]
	mov	r3, r2
	strb	r3, [sp, #6]
	.loc 4 108 5
	ldrb	r2, [sp, #6]	@ zero_extendqisi2
	ldrsb	r3, [sp, #7]
	mov	r1, r2
	mov	r0, r3
	bl	NVIC_SetPriority
	.loc 4 109 1
	nop
	add	sp, sp, #12
.LCFI10:
	@ sp needed
	ldr	pc, [sp], #4
.LFE148:
	.size	_NRFX_IRQ_PRIORITY_SET, .-_NRFX_IRQ_PRIORITY_SET
	.section	.text._NRFX_IRQ_ENABLE,"ax",%progbits
	.align	1
	.syntax unified
	.thumb
	.thumb_func
	.fpu softvfp
	.type	_NRFX_IRQ_ENABLE, %function
_NRFX_IRQ_ENABLE:
.LFB149:
	.loc 4 118 1
	@ args = 0, pretend = 0, frame = 8
	@ frame_needed = 0, uses_anonymous_args = 0
	push	{lr}
.LCFI11:
	sub	sp, sp, #12
.LCFI12:
	mov	r3, r0
	strb	r3, [sp, #7]
	.loc 4 119 5
	ldrsb	r3, [sp, #7]
	mov	r0, r3
	bl	NVIC_EnableIRQ
	.loc 4 120 1
	nop
	add	sp, sp, #12
.LCFI13:
	@ sp needed
	ldr	pc, [sp], #4
.LFE149:
	.size	_NRFX_IRQ_ENABLE, .-_NRFX_IRQ_ENABLE
	.section	.text._NRFX_IRQ_DISABLE,"ax",%progbits
	.align	1
	.syntax unified
	.thumb
	.thumb_func
	.fpu softvfp
	.type	_NRFX_IRQ_DISABLE, %function
_NRFX_IRQ_DISABLE:
.LFB151:
	.loc 4 143 1
	@ args = 0, pretend = 0, frame = 8
	@ frame_needed = 0, uses_anonymous_args = 0
	push	{lr}
.LCFI14:
	sub	sp, sp, #12
.LCFI15:
	mov	r3, r0
	strb	r3, [sp, #7]
	.loc 4 144 5
	ldrsb	r3, [sp, #7]
	mov	r0, r3
	bl	NVIC_DisableIRQ
	.loc 4 145 1
	nop
	add	sp, sp, #12
.LCFI16:
	@ sp needed
	ldr	pc, [sp], #4
.LFE151:
	.size	_NRFX_IRQ_DISABLE, .-_NRFX_IRQ_DISABLE
	.section	.text.nrf_uart_event_clear,"ax",%progbits
	.align	1
	.syntax unified
	.thumb
	.thumb_func
	.fpu softvfp
	.type	nrf_uart_event_clear, %function
nrf_uart_event_clear:
.LFB156:
	.file 5 "./../../../../../../../modules/nrfx/hal/nrf_uart.h"
	.loc 5 360 1
	@ args = 0, pretend = 0, frame = 16
	@ frame_needed = 0, uses_anonymous_args = 0
	@ link register save eliminated.
	sub	sp, sp, #16
.LCFI17:
	str	r0, [sp, #4]
	mov	r3, r1
	strh	r3, [sp, #2]	@ movhi
	.loc 5 361 48
	ldrh	r3, [sp, #2]
	.loc 5 361 7
	ldr	r2, [sp, #4]
	add	r3, r3, r2
	.loc 5 361 66
	movs	r2, #0
	str	r2, [r3]
	.loc 5 363 74
	ldrh	r3, [sp, #2]
	.loc 5 363 33
	ldr	r2, [sp, #4]
	add	r3, r3, r2
	.loc 5 363 31
	ldr	r3, [r3]
	.loc 5 363 23
	str	r3, [sp, #12]
	.loc 5 364 5
	ldr	r3, [sp, #12]
	.loc 5 367 1
	nop
	add	sp, sp, #16
.LCFI18:
	@ sp needed
	bx	lr
.LFE156:
	.size	nrf_uart_event_clear, .-nrf_uart_event_clear
	.section	.text.nrf_uart_event_check,"ax",%progbits
	.align	1
	.syntax unified
	.thumb
	.thumb_func
	.fpu softvfp
	.type	nrf_uart_event_check, %function
nrf_uart_event_check:
.LFB157:
	.loc 5 370 1
	@ args = 0, pretend = 0, frame = 8
	@ frame_needed = 0, uses_anonymous_args = 0
	@ link register save eliminated.
	sub	sp, sp, #8
.LCFI19:
	str	r0, [sp, #4]
	mov	r3, r1
	strh	r3, [sp, #2]	@ movhi
	.loc 5 371 60
	ldrh	r3, [sp, #2]
	.loc 5 371 19
	ldr	r2, [sp, #4]
	add	r3, r3, r2
	.loc 5 371 18
	ldr	r3, [r3]
	.loc 5 371 12
	cmp	r3, #0
	ite	ne
	movne	r3, #1
	moveq	r3, #0
	uxtb	r3, r3
	.loc 5 372 1
	mov	r0, r3
	add	sp, sp, #8
.LCFI20:
	@ sp needed
	bx	lr
.LFE157:
	.size	nrf_uart_event_check, .-nrf_uart_event_check
	.section	.text.nrf_uart_int_enable,"ax",%progbits
	.align	1
	.syntax unified
	.thumb
	.thumb_func
	.fpu softvfp
	.type	nrf_uart_int_enable, %function
nrf_uart_int_enable:
.LFB159:
	.loc 5 381 1
	@ args = 0, pretend = 0, frame = 8
	@ frame_needed = 0, uses_anonymous_args = 0
	@ link register save eliminated.
	sub	sp, sp, #8
.LCFI21:
	str	r0, [sp, #4]
	str	r1, [sp]
	.loc 5 382 21
	ldr	r3, [sp, #4]
	ldr	r2, [sp]
	str	r2, [r3, #772]
	.loc 5 383 1
	nop
	add	sp, sp, #8
.LCFI22:
	@ sp needed
	bx	lr
.LFE159:
	.size	nrf_uart_int_enable, .-nrf_uart_int_enable
	.section	.text.nrf_uart_int_enable_check,"ax",%progbits
	.align	1
	.syntax unified
	.thumb
	.thumb_func
	.fpu softvfp
	.type	nrf_uart_int_enable_check, %function
nrf_uart_int_enable_check:
.LFB160:
	.loc 5 386 1
	@ args = 0, pretend = 0, frame = 8
	@ frame_needed = 0, uses_anonymous_args = 0
	@ link register save eliminated.
	sub	sp, sp, #8
.LCFI23:
	str	r0, [sp, #4]
	str	r1, [sp]
	.loc 5 387 24
	ldr	r3, [sp, #4]
	ldr	r2, [r3, #772]
	.loc 5 387 35
	ldr	r3, [sp]
	ands	r3, r3, r2
	.loc 5 387 12
	cmp	r3, #0
	ite	ne
	movne	r3, #1
	moveq	r3, #0
	uxtb	r3, r3
	.loc 5 388 1
	mov	r0, r3
	add	sp, sp, #8
.LCFI24:
	@ sp needed
	bx	lr
.LFE160:
	.size	nrf_uart_int_enable_check, .-nrf_uart_int_enable_check
	.section	.text.nrf_uart_int_disable,"ax",%progbits
	.align	1
	.syntax unified
	.thumb
	.thumb_func
	.fpu softvfp
	.type	nrf_uart_int_disable, %function
nrf_uart_int_disable:
.LFB161:
	.loc 5 391 1
	@ args = 0, pretend = 0, frame = 8
	@ frame_needed = 0, uses_anonymous_args = 0
	@ link register save eliminated.
	sub	sp, sp, #8
.LCFI25:
	str	r0, [sp, #4]
	str	r1, [sp]
	.loc 5 392 21
	ldr	r3, [sp, #4]
	ldr	r2, [sp]
	str	r2, [r3, #776]
	.loc 5 393 1
	nop
	add	sp, sp, #8
.LCFI26:
	@ sp needed
	bx	lr
.LFE161:
	.size	nrf_uart_int_disable, .-nrf_uart_int_disable
	.section	.text.nrf_uart_errorsrc_get_and_clear,"ax",%progbits
	.align	1
	.syntax unified
	.thumb
	.thumb_func
	.fpu softvfp
	.type	nrf_uart_errorsrc_get_and_clear, %function
nrf_uart_errorsrc_get_and_clear:
.LFB162:
	.loc 5 396 1
	@ args = 0, pretend = 0, frame = 16
	@ frame_needed = 0, uses_anonymous_args = 0
	@ link register save eliminated.
	sub	sp, sp, #16
.LCFI27:
	str	r0, [sp, #4]
	.loc 5 397 14
	ldr	r3, [sp, #4]
	ldr	r3, [r3, #1152]
	str	r3, [sp, #12]
	.loc 5 398 21
	ldr	r3, [sp, #4]
	ldr	r2, [sp, #12]
	str	r2, [r3, #1152]
	.loc 5 399 12
	ldr	r3, [sp, #12]
	.loc 5 400 1
	mov	r0, r3
	add	sp, sp, #16
.LCFI28:
	@ sp needed
	bx	lr
.LFE162:
	.size	nrf_uart_errorsrc_get_and_clear, .-nrf_uart_errorsrc_get_and_clear
	.section	.text.nrf_uart_enable,"ax",%progbits
	.align	1
	.syntax unified
	.thumb
	.thumb_func
	.fpu softvfp
	.type	nrf_uart_enable, %function
nrf_uart_enable:
.LFB163:
	.loc 5 403 1
	@ args = 0, pretend = 0, frame = 8
	@ frame_needed = 0, uses_anonymous_args = 0
	@ link register save eliminated.
	sub	sp, sp, #8
.LCFI29:
	str	r0, [sp, #4]
	.loc 5 404 19
	ldr	r3, [sp, #4]
	movs	r2, #4
	str	r2, [r3, #1280]
	.loc 5 405 1
	nop
	add	sp, sp, #8
.LCFI30:
	@ sp needed
	bx	lr
.LFE163:
	.size	nrf_uart_enable, .-nrf_uart_enable
	.section	.text.nrf_uart_disable,"ax",%progbits
	.align	1
	.syntax unified
	.thumb
	.thumb_func
	.fpu softvfp
	.type	nrf_uart_disable, %function
nrf_uart_disable:
.LFB164:
	.loc 5 408 1
	@ args = 0, pretend = 0, frame = 8
	@ frame_needed = 0, uses_anonymous_args = 0
	@ link register save eliminated.
	sub	sp, sp, #8
.LCFI31:
	str	r0, [sp, #4]
	.loc 5 409 19
	ldr	r3, [sp, #4]
	movs	r2, #0
	str	r2, [r3, #1280]
	.loc 5 410 1
	nop
	add	sp, sp, #8
.LCFI32:
	@ sp needed
	bx	lr
.LFE164:
	.size	nrf_uart_disable, .-nrf_uart_disable
	.section	.text.nrf_uart_txrx_pins_set,"ax",%progbits
	.align	1
	.syntax unified
	.thumb
	.thumb_func
	.fpu softvfp
	.type	nrf_uart_txrx_pins_set, %function
nrf_uart_txrx_pins_set:
.LFB165:
	.loc 5 413 1
	@ args = 0, pretend = 0, frame = 16
	@ frame_needed = 0, uses_anonymous_args = 0
	@ link register save eliminated.
	sub	sp, sp, #16
.LCFI33:
	str	r0, [sp, #12]
	str	r1, [sp, #8]
	str	r2, [sp, #4]
	.loc 5 415 21
	ldr	r3, [sp, #12]
	ldr	r2, [sp, #4]
	str	r2, [r3, #1300]
	.loc 5 420 21
	ldr	r3, [sp, #12]
	ldr	r2, [sp, #8]
	str	r2, [r3, #1292]
	.loc 5 424 1
	nop
	add	sp, sp, #16
.LCFI34:
	@ sp needed
	bx	lr
.LFE165:
	.size	nrf_uart_txrx_pins_set, .-nrf_uart_txrx_pins_set
	.section	.text.nrf_uart_txrx_pins_disconnect,"ax",%progbits
	.align	1
	.syntax unified
	.thumb
	.thumb_func
	.fpu softvfp
	.type	nrf_uart_txrx_pins_disconnect, %function
nrf_uart_txrx_pins_disconnect:
.LFB166:
	.loc 5 427 1
	@ args = 0, pretend = 0, frame = 8
	@ frame_needed = 0, uses_anonymous_args = 0
	push	{lr}
.LCFI35:
	sub	sp, sp, #12
.LCFI36:
	str	r0, [sp, #4]
	.loc 5 428 5
	mov	r2, #-1
	mov	r1, #-1
	ldr	r0, [sp, #4]
	bl	nrf_uart_txrx_pins_set
	.loc 5 429 1
	nop
	add	sp, sp, #12
.LCFI37:
	@ sp needed
	ldr	pc, [sp], #4
.LFE166:
	.size	nrf_uart_txrx_pins_disconnect, .-nrf_uart_txrx_pins_disconnect
	.section	.text.nrf_uart_tx_pin_get,"ax",%progbits
	.align	1
	.syntax unified
	.thumb
	.thumb_func
	.fpu softvfp
	.type	nrf_uart_tx_pin_get, %function
nrf_uart_tx_pin_get:
.LFB167:
	.loc 5 432 1
	@ args = 0, pretend = 0, frame = 8
	@ frame_needed = 0, uses_anonymous_args = 0
	@ link register save eliminated.
	sub	sp, sp, #8
.LCFI38:
	str	r0, [sp, #4]
	.loc 5 434 23
	ldr	r3, [sp, #4]
	ldr	r3, [r3, #1292]
	.loc 5 438 1
	mov	r0, r3
	add	sp, sp, #8
.LCFI39:
	@ sp needed
	bx	lr
.LFE167:
	.size	nrf_uart_tx_pin_get, .-nrf_uart_tx_pin_get
	.section	.text.nrf_uart_rx_pin_get,"ax",%progbits
	.align	1
	.syntax unified
	.thumb
	.thumb_func
	.fpu softvfp
	.type	nrf_uart_rx_pin_get, %function
nrf_uart_rx_pin_get:
.LFB168:
	.loc 5 441 1
	@ args = 0, pretend = 0, frame = 8
	@ frame_needed = 0, uses_anonymous_args = 0
	@ link register save eliminated.
	sub	sp, sp, #8
.LCFI40:
	str	r0, [sp, #4]
	.loc 5 443 23
	ldr	r3, [sp, #4]
	ldr	r3, [r3, #1300]
	.loc 5 447 1
	mov	r0, r3
	add	sp, sp, #8
.LCFI41:
	@ sp needed
	bx	lr
.LFE168:
	.size	nrf_uart_rx_pin_get, .-nrf_uart_rx_pin_get
	.section	.text.nrf_uart_rts_pin_get,"ax",%progbits
	.align	1
	.syntax unified
	.thumb
	.thumb_func
	.fpu softvfp
	.type	nrf_uart_rts_pin_get, %function
nrf_uart_rts_pin_get:
.LFB169:
	.loc 5 450 1
	@ args = 0, pretend = 0, frame = 8
	@ frame_needed = 0, uses_anonymous_args = 0
	@ link register save eliminated.
	sub	sp, sp, #8
.LCFI42:
	str	r0, [sp, #4]
	.loc 5 452 23
	ldr	r3, [sp, #4]
	ldr	r3, [r3, #1288]
	.loc 5 456 1
	mov	r0, r3
	add	sp, sp, #8
.LCFI43:
	@ sp needed
	bx	lr
.LFE169:
	.size	nrf_uart_rts_pin_get, .-nrf_uart_rts_pin_get
	.section	.text.nrf_uart_cts_pin_get,"ax",%progbits
	.align	1
	.syntax unified
	.thumb
	.thumb_func
	.fpu softvfp
	.type	nrf_uart_cts_pin_get, %function
nrf_uart_cts_pin_get:
.LFB170:
	.loc 5 459 1
	@ args = 0, pretend = 0, frame = 8
	@ frame_needed = 0, uses_anonymous_args = 0
	@ link register save eliminated.
	sub	sp, sp, #8
.LCFI44:
	str	r0, [sp, #4]
	.loc 5 461 23
	ldr	r3, [sp, #4]
	ldr	r3, [r3, #1296]
	.loc 5 465 1
	mov	r0, r3
	add	sp, sp, #8
.LCFI45:
	@ sp needed
	bx	lr
.LFE170:
	.size	nrf_uart_cts_pin_get, .-nrf_uart_cts_pin_get
	.section	.text.nrf_uart_hwfc_pins_set,"ax",%progbits
	.align	1
	.syntax unified
	.thumb
	.thumb_func
	.fpu softvfp
	.type	nrf_uart_hwfc_pins_set, %function
nrf_uart_hwfc_pins_set:
.LFB171:
	.loc 5 468 1
	@ args = 0, pretend = 0, frame = 16
	@ frame_needed = 0, uses_anonymous_args = 0
	@ link register save eliminated.
	sub	sp, sp, #16
.LCFI46:
	str	r0, [sp, #12]
	str	r1, [sp, #8]
	str	r2, [sp, #4]
	.loc 5 470 21
	ldr	r3, [sp, #12]
	ldr	r2, [sp, #8]
	str	r2, [r3, #1288]
	.loc 5 476 21
	ldr	r3, [sp, #12]
	ldr	r2, [sp, #4]
	str	r2, [r3, #1296]
	.loc 5 480 1
	nop
	add	sp, sp, #16
.LCFI47:
	@ sp needed
	bx	lr
.LFE171:
	.size	nrf_uart_hwfc_pins_set, .-nrf_uart_hwfc_pins_set
	.section	.text.nrf_uart_hwfc_pins_disconnect,"ax",%progbits
	.align	1
	.syntax unified
	.thumb
	.thumb_func
	.fpu softvfp
	.type	nrf_uart_hwfc_pins_disconnect, %function
nrf_uart_hwfc_pins_disconnect:
.LFB172:
	.loc 5 483 1
	@ args = 0, pretend = 0, frame = 8
	@ frame_needed = 0, uses_anonymous_args = 0
	push	{lr}
.LCFI48:
	sub	sp, sp, #12
.LCFI49:
	str	r0, [sp, #4]
	.loc 5 484 5
	mov	r2, #-1
	mov	r1, #-1
	ldr	r0, [sp, #4]
	bl	nrf_uart_hwfc_pins_set
	.loc 5 485 1
	nop
	add	sp, sp, #12
.LCFI50:
	@ sp needed
	ldr	pc, [sp], #4
.LFE172:
	.size	nrf_uart_hwfc_pins_disconnect, .-nrf_uart_hwfc_pins_disconnect
	.section	.text.nrf_uart_rxd_get,"ax",%progbits
	.align	1
	.syntax unified
	.thumb
	.thumb_func
	.fpu softvfp
	.type	nrf_uart_rxd_get, %function
nrf_uart_rxd_get:
.LFB173:
	.loc 5 488 1
	@ args = 0, pretend = 0, frame = 8
	@ frame_needed = 0, uses_anonymous_args = 0
	@ link register save eliminated.
	sub	sp, sp, #8
.LCFI51:
	str	r0, [sp, #4]
	.loc 5 489 17
	ldr	r3, [sp, #4]
	ldr	r3, [r3, #1304]
	uxtb	r3, r3
	.loc 5 490 1
	mov	r0, r3
	add	sp, sp, #8
.LCFI52:
	@ sp needed
	bx	lr
.LFE173:
	.size	nrf_uart_rxd_get, .-nrf_uart_rxd_get
	.section	.text.nrf_uart_txd_set,"ax",%progbits
	.align	1
	.syntax unified
	.thumb
	.thumb_func
	.fpu softvfp
	.type	nrf_uart_txd_set, %function
nrf_uart_txd_set:
.LFB174:
	.loc 5 493 1
	@ args = 0, pretend = 0, frame = 8
	@ frame_needed = 0, uses_anonymous_args = 0
	@ link register save eliminated.
	sub	sp, sp, #8
.LCFI53:
	str	r0, [sp, #4]
	mov	r3, r1
	strb	r3, [sp, #3]
	.loc 5 494 16
	ldrb	r2, [sp, #3]	@ zero_extendqisi2
	ldr	r3, [sp, #4]
	str	r2, [r3, #1308]
	.loc 5 495 1
	nop
	add	sp, sp, #8
.LCFI54:
	@ sp needed
	bx	lr
.LFE174:
	.size	nrf_uart_txd_set, .-nrf_uart_txd_set
	.section	.text.nrf_uart_task_trigger,"ax",%progbits
	.align	1
	.syntax unified
	.thumb
	.thumb_func
	.fpu softvfp
	.type	nrf_uart_task_trigger, %function
nrf_uart_task_trigger:
.LFB175:
	.loc 5 498 1
	@ args = 0, pretend = 0, frame = 8
	@ frame_needed = 0, uses_anonymous_args = 0
	@ link register save eliminated.
	sub	sp, sp, #8
.LCFI55:
	str	r0, [sp, #4]
	mov	r3, r1
	strb	r3, [sp, #3]
	.loc 5 499 48
	ldrb	r3, [sp, #3]	@ zero_extendqisi2
	.loc 5 499 7
	ldr	r2, [sp, #4]
	add	r3, r3, r2
	.loc 5 499 65
	movs	r2, #1
	str	r2, [r3]
	.loc 5 500 1
	nop
	add	sp, sp, #8
.LCFI56:
	@ sp needed
	bx	lr
.LFE175:
	.size	nrf_uart_task_trigger, .-nrf_uart_task_trigger
	.section	.text.nrf_uart_configure,"ax",%progbits
	.align	1
	.syntax unified
	.thumb
	.thumb_func
	.fpu softvfp
	.type	nrf_uart_configure, %function
nrf_uart_configure:
.LFB177:
	.loc 5 510 1
	@ args = 0, pretend = 0, frame = 8
	@ frame_needed = 0, uses_anonymous_args = 0
	@ link register save eliminated.
	sub	sp, sp, #8
.LCFI57:
	str	r0, [sp, #4]
	mov	r3, r1
	strb	r3, [sp, #3]
	mov	r3, r2
	strb	r3, [sp, #2]
	.loc 5 511 38
	ldrb	r2, [sp, #3]
	ldrb	r3, [sp, #2]
	orrs	r3, r3, r2
	uxtb	r3, r3
	mov	r2, r3
	.loc 5 511 19
	ldr	r3, [sp, #4]
	str	r2, [r3, #1388]
	.loc 5 512 1
	nop
	add	sp, sp, #8
.LCFI58:
	@ sp needed
	bx	lr
.LFE177:
	.size	nrf_uart_configure, .-nrf_uart_configure
	.section	.text.nrf_uart_baudrate_set,"ax",%progbits
	.align	1
	.syntax unified
	.thumb
	.thumb_func
	.fpu softvfp
	.type	nrf_uart_baudrate_set, %function
nrf_uart_baudrate_set:
.LFB178:
	.loc 5 515 1
	@ args = 0, pretend = 0, frame = 8
	@ frame_needed = 0, uses_anonymous_args = 0
	@ link register save eliminated.
	sub	sp, sp, #8
.LCFI59:
	str	r0, [sp, #4]
	str	r1, [sp]
	.loc 5 516 21
	ldr	r3, [sp, #4]
	ldr	r2, [sp]
	str	r2, [r3, #1316]
	.loc 5 517 1
	nop
	add	sp, sp, #8
.LCFI60:
	@ sp needed
	bx	lr
.LFE178:
	.size	nrf_uart_baudrate_set, .-nrf_uart_baudrate_set
	.section	.text.nrf_gpio_pin_port_decode,"ax",%progbits
	.align	1
	.syntax unified
	.thumb
	.thumb_func
	.fpu softvfp
	.type	nrf_gpio_pin_port_decode, %function
nrf_gpio_pin_port_decode:
.LFB181:
	.file 6 "./../../../../../../../modules/nrfx/hal/nrf_gpio.h"
	.loc 6 485 1
	@ args = 0, pretend = 0, frame = 8
	@ frame_needed = 0, uses_anonymous_args = 0
	@ link register save eliminated.
	sub	sp, sp, #8
.LCFI61:
	str	r0, [sp, #4]
	.loc 6 490 9
	ldr	r3, [sp, #4]
	ldr	r3, [r3]
	.loc 6 490 8
	cmp	r3, #31
	bhi	.L49
	.loc 6 492 16
	mov	r3, #1342177280
	b	.L50
.L49:
	.loc 6 496 18
	ldr	r3, [sp, #4]
	ldr	r3, [r3]
	.loc 6 496 25
	and	r2, r3, #31
	.loc 6 496 16
	ldr	r3, [sp, #4]
	str	r2, [r3]
	.loc 6 497 16
	ldr	r3, .L51
.L50:
	.loc 6 500 1
	mov	r0, r3
	add	sp, sp, #8
.LCFI62:
	@ sp needed
	bx	lr
.L52:
	.align	2
.L51:
	.word	1342178048
.LFE181:
	.size	nrf_gpio_pin_port_decode, .-nrf_gpio_pin_port_decode
	.section	.text.nrf_gpio_cfg,"ax",%progbits
	.align	1
	.syntax unified
	.thumb
	.thumb_func
	.fpu softvfp
	.type	nrf_gpio_cfg, %function
nrf_gpio_cfg:
.LFB184:
	.loc 6 532 1
	@ args = 8, pretend = 0, frame = 16
	@ frame_needed = 0, uses_anonymous_args = 0
	push	{lr}
.LCFI63:
	sub	sp, sp, #20
.LCFI64:
	str	r0, [sp, #4]
	mov	r0, r1
	mov	r1, r2
	mov	r2, r3
	mov	r3, r0
	strb	r3, [sp, #3]
	mov	r3, r1
	strb	r3, [sp, #2]
	mov	r3, r2
	strb	r3, [sp, #1]
	.loc 6 533 27
	add	r3, sp, #4
	mov	r0, r3
	bl	nrf_gpio_pin_port_decode
	str	r0, [sp, #12]
	.loc 6 535 47
	ldrb	r2, [sp, #3]	@ zero_extendqisi2
	.loc 6 536 35
	ldrb	r3, [sp, #2]	@ zero_extendqisi2
	.loc 6 536 51
	lsls	r3, r3, #1
	.loc 6 536 32
	orrs	r2, r2, r3
	.loc 6 537 35
	ldrb	r3, [sp, #1]	@ zero_extendqisi2
	.loc 6 537 50
	lsls	r3, r3, #2
	.loc 6 537 32
	orrs	r2, r2, r3
	.loc 6 538 35
	ldrb	r3, [sp, #24]	@ zero_extendqisi2
	.loc 6 538 51
	lsls	r3, r3, #8
	.loc 6 538 32
	orr	r1, r2, r3
	.loc 6 539 35
	ldrb	r3, [sp, #28]	@ zero_extendqisi2
	.loc 6 539 51
	lsls	r3, r3, #16
	.loc 6 535 17
	ldr	r2, [sp, #4]
	.loc 6 539 32
	orrs	r1, r1, r3
	.loc 6 535 30
	ldr	r3, [sp, #12]
	add	r2, r2, #448
	str	r1, [r3, r2, lsl #2]
	.loc 6 540 1
	nop
	add	sp, sp, #20
.LCFI65:
	@ sp needed
	ldr	pc, [sp], #4
.LFE184:
	.size	nrf_gpio_cfg, .-nrf_gpio_cfg
	.section	.text.nrf_gpio_cfg_output,"ax",%progbits
	.align	1
	.syntax unified
	.thumb
	.thumb_func
	.fpu softvfp
	.type	nrf_gpio_cfg_output, %function
nrf_gpio_cfg_output:
.LFB185:
	.loc 6 544 1
	@ args = 0, pretend = 0, frame = 8
	@ frame_needed = 0, uses_anonymous_args = 0
	push	{lr}
.LCFI66:
	sub	sp, sp, #20
.LCFI67:
	str	r0, [sp, #12]
	.loc 6 545 5
	movs	r3, #0
	str	r3, [sp, #4]
	movs	r3, #0
	str	r3, [sp]
	movs	r3, #0
	movs	r2, #1
	movs	r1, #1
	ldr	r0, [sp, #12]
	bl	nrf_gpio_cfg
	.loc 6 552 1
	nop
	add	sp, sp, #20
.LCFI68:
	@ sp needed
	ldr	pc, [sp], #4
.LFE185:
	.size	nrf_gpio_cfg_output, .-nrf_gpio_cfg_output
	.section	.text.nrf_gpio_cfg_input,"ax",%progbits
	.align	1
	.syntax unified
	.thumb
	.thumb_func
	.fpu softvfp
	.type	nrf_gpio_cfg_input, %function
nrf_gpio_cfg_input:
.LFB186:
	.loc 6 556 1
	@ args = 0, pretend = 0, frame = 8
	@ frame_needed = 0, uses_anonymous_args = 0
	push	{lr}
.LCFI69:
	sub	sp, sp, #20
.LCFI70:
	str	r0, [sp, #12]
	mov	r3, r1
	strb	r3, [sp, #11]
	.loc 6 557 5
	ldrb	r2, [sp, #11]	@ zero_extendqisi2
	movs	r3, #0
	str	r3, [sp, #4]
	movs	r3, #0
	str	r3, [sp]
	mov	r3, r2
	movs	r2, #0
	movs	r1, #0
	ldr	r0, [sp, #12]
	bl	nrf_gpio_cfg
	.loc 6 564 1
	nop
	add	sp, sp, #20
.LCFI71:
	@ sp needed
	ldr	pc, [sp], #4
.LFE186:
	.size	nrf_gpio_cfg_input, .-nrf_gpio_cfg_input
	.section	.text.nrf_gpio_cfg_default,"ax",%progbits
	.align	1
	.syntax unified
	.thumb
	.thumb_func
	.fpu softvfp
	.type	nrf_gpio_cfg_default, %function
nrf_gpio_cfg_default:
.LFB187:
	.loc 6 568 1
	@ args = 0, pretend = 0, frame = 8
	@ frame_needed = 0, uses_anonymous_args = 0
	push	{lr}
.LCFI72:
	sub	sp, sp, #20
.LCFI73:
	str	r0, [sp, #12]
	.loc 6 569 5
	movs	r3, #0
	str	r3, [sp, #4]
	movs	r3, #0
	str	r3, [sp]
	movs	r3, #0
	movs	r2, #1
	movs	r1, #0
	ldr	r0, [sp, #12]
	bl	nrf_gpio_cfg
	.loc 6 576 1
	nop
	add	sp, sp, #20
.LCFI74:
	@ sp needed
	ldr	pc, [sp], #4
.LFE187:
	.size	nrf_gpio_cfg_default, .-nrf_gpio_cfg_default
	.section	.text.nrf_gpio_pin_set,"ax",%progbits
	.align	1
	.syntax unified
	.thumb
	.thumb_func
	.fpu softvfp
	.type	nrf_gpio_pin_set, %function
nrf_gpio_pin_set:
.LFB193:
	.loc 6 644 1
	@ args = 0, pretend = 0, frame = 16
	@ frame_needed = 0, uses_anonymous_args = 0
	push	{lr}
.LCFI75:
	sub	sp, sp, #20
.LCFI76:
	str	r0, [sp, #4]
	.loc 6 645 27
	add	r3, sp, #4
	mov	r0, r3
	bl	nrf_gpio_pin_port_decode
	str	r0, [sp, #12]
	.loc 6 647 5
	ldr	r3, [sp, #4]
	.loc 6 647 36
	movs	r2, #1
	lsl	r3, r2, r3
	.loc 6 647 5
	mov	r1, r3
	ldr	r0, [sp, #12]
	bl	nrf_gpio_port_out_set
	.loc 6 648 1
	nop
	add	sp, sp, #20
.LCFI77:
	@ sp needed
	ldr	pc, [sp], #4
.LFE193:
	.size	nrf_gpio_pin_set, .-nrf_gpio_pin_set
	.section	.text.nrf_gpio_port_out_set,"ax",%progbits
	.align	1
	.syntax unified
	.thumb
	.thumb_func
	.fpu softvfp
	.type	nrf_gpio_port_out_set, %function
nrf_gpio_port_out_set:
.LFB210:
	.loc 6 775 1
	@ args = 0, pretend = 0, frame = 8
	@ frame_needed = 0, uses_anonymous_args = 0
	@ link register save eliminated.
	sub	sp, sp, #8
.LCFI78:
	str	r0, [sp, #4]
	str	r1, [sp]
	.loc 6 776 19
	ldr	r3, [sp, #4]
	ldr	r2, [sp]
	str	r2, [r3, #1288]
	.loc 6 777 1
	nop
	add	sp, sp, #8
.LCFI79:
	@ sp needed
	bx	lr
.LFE210:
	.size	nrf_gpio_port_out_set, .-nrf_gpio_port_out_set
	.global	m_nrf_log_UART_logs_data_const
	.section .rodata
	.align	2
.LC0:
	.ascii	"UART\000"
	.section	.log_const_data_UART,"a"
	.align	2
	.type	m_nrf_log_UART_logs_data_const, %object
	.size	m_nrf_log_UART_logs_data_const, 8
m_nrf_log_UART_logs_data_const:
	.word	.LC0
	.byte	0
	.byte	0
	.byte	0
	.byte	0
	.global	m_nrf_log_UART_logs_data_dynamic
	.section	.log_dynamic_data_UART,"aw"
	.align	2
	.type	m_nrf_log_UART_logs_data_dynamic, %object
	.size	m_nrf_log_UART_logs_data_dynamic, 4
m_nrf_log_UART_logs_data_dynamic:
	.space	4
	.global	m_nrf_log_UART_logs_data_filter
	.section	.log_filter_data_UART,"aw"
	.align	2
	.type	m_nrf_log_UART_logs_data_filter, %object
	.size	m_nrf_log_UART_logs_data_filter, 4
m_nrf_log_UART_logs_data_filter:
	.space	4
	.section	.bss.m_cb,"aw",%nobits
	.align	2
	.type	m_cb, %object
	.size	m_cb, 44
m_cb:
	.space	44
	.section	.text.apply_config,"ax",%progbits
	.align	1
	.syntax unified
	.thumb
	.thumb_func
	.fpu softvfp
	.type	apply_config, %function
apply_config:
.LFB216:
	.file 7 "C:\\Users\\BertLenovo\\Downloads\\nRF5_2\\modules\\nrfx\\drivers\\src\\nrfx_uart.c"
	.loc 7 83 1
	@ args = 0, pretend = 0, frame = 8
	@ frame_needed = 0, uses_anonymous_args = 0
	push	{lr}
.LCFI80:
	sub	sp, sp, #12
.LCFI81:
	str	r0, [sp, #4]
	str	r1, [sp]
	.loc 7 84 17
	ldr	r3, [sp]
	ldr	r3, [r3]
	.loc 7 84 8
	cmp	r3, #-1
	beq	.L60
	.loc 7 86 9
	ldr	r3, [sp]
	ldr	r3, [r3]
	mov	r0, r3
	bl	nrf_gpio_pin_set
	.loc 7 87 9
	ldr	r3, [sp]
	ldr	r3, [r3]
	mov	r0, r3
	bl	nrf_gpio_cfg_output
.L60:
	.loc 7 89 17
	ldr	r3, [sp]
	ldr	r3, [r3, #4]
	.loc 7 89 8
	cmp	r3, #-1
	beq	.L61
	.loc 7 91 9
	ldr	r3, [sp]
	ldr	r3, [r3, #4]
	movs	r1, #0
	mov	r0, r3
	bl	nrf_gpio_cfg_input
.L61:
	.loc 7 94 5
	ldr	r3, [sp, #4]
	ldr	r2, [r3]
	ldr	r3, [sp]
	ldr	r3, [r3, #24]
	mov	r1, r3
	mov	r0, r2
	bl	nrf_uart_baudrate_set
	.loc 7 95 5
	ldr	r3, [sp, #4]
	ldr	r0, [r3]
	ldr	r3, [sp]
	ldrb	r1, [r3, #21]	@ zero_extendqisi2
	ldr	r3, [sp]
	ldrb	r3, [r3, #20]	@ zero_extendqisi2
	mov	r2, r3
	bl	nrf_uart_configure
	.loc 7 96 5
	ldr	r3, [sp, #4]
	ldr	r0, [r3]
	ldr	r3, [sp]
	ldr	r1, [r3]
	ldr	r3, [sp]
	ldr	r3, [r3, #4]
	mov	r2, r3
	bl	nrf_uart_txrx_pins_set
	.loc 7 97 17
	ldr	r3, [sp]
	ldrb	r3, [r3, #20]	@ zero_extendqisi2
	.loc 7 97 8
	cmp	r3, #1
	bne	.L65
	.loc 7 99 21
	ldr	r3, [sp]
	ldr	r3, [r3, #8]
	.loc 7 99 12
	cmp	r3, #-1
	beq	.L63
	.loc 7 101 13
	ldr	r3, [sp]
	ldr	r3, [r3, #8]
	movs	r1, #0
	mov	r0, r3
	bl	nrf_gpio_cfg_input
.L63:
	.loc 7 103 21
	ldr	r3, [sp]
	ldr	r3, [r3, #12]
	.loc 7 103 12
	cmp	r3, #-1
	beq	.L64
	.loc 7 105 13
	ldr	r3, [sp]
	ldr	r3, [r3, #12]
	mov	r0, r3
	bl	nrf_gpio_pin_set
	.loc 7 106 13
	ldr	r3, [sp]
	ldr	r3, [r3, #12]
	mov	r0, r3
	bl	nrf_gpio_cfg_output
.L64:
	.loc 7 108 9
	ldr	r3, [sp, #4]
	ldr	r0, [r3]
	ldr	r3, [sp]
	ldr	r1, [r3, #12]
	ldr	r3, [sp]
	ldr	r3, [r3, #8]
	mov	r2, r3
	bl	nrf_uart_hwfc_pins_set
.L65:
	.loc 7 110 1
	nop
	add	sp, sp, #12
.LCFI82:
	@ sp needed
	ldr	pc, [sp], #4
.LFE216:
	.size	apply_config, .-apply_config
	.section	.text.interrupts_enable,"ax",%progbits
	.align	1
	.syntax unified
	.thumb
	.thumb_func
	.fpu softvfp
	.type	interrupts_enable, %function
interrupts_enable:
.LFB217:
	.loc 7 114 1
	@ args = 0, pretend = 0, frame = 8
	@ frame_needed = 0, uses_anonymous_args = 0
	push	{lr}
.LCFI83:
	sub	sp, sp, #12
.LCFI84:
	str	r0, [sp, #4]
	mov	r3, r1
	strb	r3, [sp, #3]
	.loc 7 115 5
	ldr	r3, [sp, #4]
	ldr	r3, [r3]
	mov	r1, #284
	mov	r0, r3
	bl	nrf_uart_event_clear
	.loc 7 116 5
	ldr	r3, [sp, #4]
	ldr	r3, [r3]
	mov	r1, #324
	mov	r0, r3
	bl	nrf_uart_event_clear
	.loc 7 117 5
	ldr	r3, [sp, #4]
	ldr	r3, [r3]
	ldr	r1, .L67
	mov	r0, r3
	bl	nrf_uart_int_enable
	.loc 7 119 5
	ldr	r3, [sp, #4]
	ldr	r3, [r3]
	mov	r0, r3
	bl	nrfx_get_irq_number
	mov	r3, r0
	mov	r2, r3
	ldrb	r3, [sp, #3]	@ zero_extendqisi2
	mov	r1, r3
	mov	r0, r2
	bl	_NRFX_IRQ_PRIORITY_SET
	.loc 7 121 5
	ldr	r3, [sp, #4]
	ldr	r3, [r3]
	mov	r0, r3
	bl	nrfx_get_irq_number
	mov	r3, r0
	mov	r0, r3
	bl	_NRFX_IRQ_ENABLE
	.loc 7 122 1
	nop
	add	sp, sp, #12
.LCFI85:
	@ sp needed
	ldr	pc, [sp], #4
.L68:
	.align	2
.L67:
	.word	131200
.LFE217:
	.size	interrupts_enable, .-interrupts_enable
	.section	.text.interrupts_disable,"ax",%progbits
	.align	1
	.syntax unified
	.thumb
	.thumb_func
	.fpu softvfp
	.type	interrupts_disable, %function
interrupts_disable:
.LFB218:
	.loc 7 125 1
	@ args = 0, pretend = 0, frame = 8
	@ frame_needed = 0, uses_anonymous_args = 0
	push	{lr}
.LCFI86:
	sub	sp, sp, #12
.LCFI87:
	str	r0, [sp, #4]
	.loc 7 126 5
	ldr	r3, [sp, #4]
	ldr	r3, [r3]
	ldr	r1, .L70
	mov	r0, r3
	bl	nrf_uart_int_disable
	.loc 7 130 5
	ldr	r3, [sp, #4]
	ldr	r3, [r3]
	mov	r0, r3
	bl	nrfx_get_irq_number
	mov	r3, r0
	mov	r0, r3
	bl	_NRFX_IRQ_DISABLE
	.loc 7 131 1
	nop
	add	sp, sp, #12
.LCFI88:
	@ sp needed
	ldr	pc, [sp], #4
.L71:
	.align	2
.L70:
	.word	131716
.LFE218:
	.size	interrupts_disable, .-interrupts_disable
	.section	.text.pins_to_default,"ax",%progbits
	.align	1
	.syntax unified
	.thumb
	.thumb_func
	.fpu softvfp
	.type	pins_to_default, %function
pins_to_default:
.LFB219:
	.loc 7 134 1
	@ args = 0, pretend = 0, frame = 24
	@ frame_needed = 0, uses_anonymous_args = 0
	push	{lr}
.LCFI89:
	sub	sp, sp, #28
.LCFI90:
	str	r0, [sp, #4]
	.loc 7 141 11
	ldr	r3, [sp, #4]
	ldr	r3, [r3]
	mov	r0, r3
	bl	nrf_uart_tx_pin_get
	str	r0, [sp, #20]
	.loc 7 142 11
	ldr	r3, [sp, #4]
	ldr	r3, [r3]
	mov	r0, r3
	bl	nrf_uart_rx_pin_get
	str	r0, [sp, #16]
	.loc 7 143 11
	ldr	r3, [sp, #4]
	ldr	r3, [r3]
	mov	r0, r3
	bl	nrf_uart_rts_pin_get
	str	r0, [sp, #12]
	.loc 7 144 11
	ldr	r3, [sp, #4]
	ldr	r3, [r3]
	mov	r0, r3
	bl	nrf_uart_cts_pin_get
	str	r0, [sp, #8]
	.loc 7 145 5
	ldr	r3, [sp, #4]
	ldr	r3, [r3]
	mov	r0, r3
	bl	nrf_uart_txrx_pins_disconnect
	.loc 7 146 5
	ldr	r3, [sp, #4]
	ldr	r3, [r3]
	mov	r0, r3
	bl	nrf_uart_hwfc_pins_disconnect
	.loc 7 148 8
	ldr	r3, [sp, #20]
	cmp	r3, #-1
	beq	.L73
	.loc 7 150 9
	ldr	r0, [sp, #20]
	bl	nrf_gpio_cfg_default
.L73:
	.loc 7 152 8
	ldr	r3, [sp, #16]
	cmp	r3, #-1
	beq	.L74
	.loc 7 154 9
	ldr	r0, [sp, #16]
	bl	nrf_gpio_cfg_default
.L74:
	.loc 7 156 8
	ldr	r3, [sp, #8]
	cmp	r3, #-1
	beq	.L75
	.loc 7 158 9
	ldr	r0, [sp, #8]
	bl	nrf_gpio_cfg_default
.L75:
	.loc 7 160 8
	ldr	r3, [sp, #12]
	cmp	r3, #-1
	beq	.L77
	.loc 7 162 9
	ldr	r0, [sp, #12]
	bl	nrf_gpio_cfg_default
.L77:
	.loc 7 164 1
	nop
	add	sp, sp, #28
.LCFI91:
	@ sp needed
	ldr	pc, [sp], #4
.LFE219:
	.size	pins_to_default, .-pins_to_default
	.section	.text.nrfx_uart_init,"ax",%progbits
	.align	1
	.global	nrfx_uart_init
	.syntax unified
	.thumb
	.thumb_func
	.fpu softvfp
	.type	nrfx_uart_init, %function
nrfx_uart_init:
.LFB220:
	.loc 7 169 1
	@ args = 0, pretend = 0, frame = 24
	@ frame_needed = 0, uses_anonymous_args = 0
	push	{lr}
.LCFI92:
	sub	sp, sp, #28
.LCFI93:
	str	r0, [sp, #12]
	str	r1, [sp, #8]
	str	r2, [sp, #4]
	.loc 7 171 51
	ldr	r3, [sp, #12]
	ldrb	r3, [r3, #4]	@ zero_extendqisi2
	mov	r2, r3
	.loc 7 171 28
	movs	r3, #44
	mul	r3, r3, r2
	ldr	r2, .L83
	add	r3, r3, r2
	str	r3, [sp, #16]
	.loc 7 172 16
	movs	r3, #0
	str	r3, [sp, #20]
	.loc 7 174 13
	ldr	r3, [sp, #16]
	ldrb	r3, [r3, #42]	@ zero_extendqisi2
	.loc 7 174 8
	cmp	r3, #0
	beq	.L79
	.loc 7 176 18
	movs	r3, #8
	str	r3, [sp, #20]
	.loc 7 180 16
	ldr	r3, [sp, #20]
	b	.L80
.L79:
	.loc 7 189 36
	ldr	r3, [sp, #12]
	ldr	r2, [r3]
	.loc 7 190 36
	ldr	r3, [sp, #12]
	ldrb	r3, [r3, #4]	@ zero_extendqisi2
	mov	r1, r3
	.loc 7 189 9
	ldr	r3, .L83+4
	ldr	r3, [r3, r1, lsl #2]
	mov	r1, r3
	mov	r0, r2
	bl	nrfx_prs_acquire
	mov	r3, r0
	.loc 7 189 8
	cmp	r3, #0
	beq	.L81
	.loc 7 192 18
	movs	r3, #17
	str	r3, [sp, #20]
	.loc 7 196 16
	ldr	r3, [sp, #20]
	b	.L80
.L81:
	.loc 7 200 5
	ldr	r1, [sp, #8]
	ldr	r0, [sp, #12]
	bl	apply_config
	.loc 7 202 21
	ldr	r3, [sp, #16]
	ldr	r2, [sp, #4]
	str	r2, [r3, #4]
	.loc 7 203 31
	ldr	r3, [sp, #8]
	ldr	r2, [r3, #16]
	.loc 7 203 21
	ldr	r3, [sp, #16]
	str	r2, [r3]
	.loc 7 205 13
	ldr	r3, [sp, #16]
	ldr	r3, [r3, #4]
	.loc 7 205 8
	cmp	r3, #0
	beq	.L82
	.loc 7 207 9
	ldr	r3, [sp, #8]
	ldrb	r3, [r3, #28]	@ zero_extendqisi2
	mov	r1, r3
	ldr	r0, [sp, #12]
	bl	interrupts_enable
.L82:
	.loc 7 210 5
	ldr	r3, [sp, #12]
	ldr	r3, [r3]
	mov	r0, r3
	bl	nrf_uart_enable
	.loc 7 211 38
	ldr	r3, [sp, #16]
	movs	r2, #0
	str	r2, [r3, #24]
	.loc 7 212 38
	ldr	r3, [sp, #16]
	movs	r2, #0
	str	r2, [r3, #28]
	.loc 7 213 38
	ldr	r3, [sp, #16]
	movs	r2, #0
	strb	r2, [r3, #41]
	.loc 7 214 38
	ldr	r3, [sp, #16]
	movs	r2, #0
	str	r2, [r3, #20]
	.loc 7 215 38
	ldr	r3, [sp, #16]
	movs	r2, #1
	strb	r2, [r3, #42]
	.loc 7 219 12
	ldr	r3, [sp, #20]
.L80:
	.loc 7 220 1
	mov	r0, r3
	add	sp, sp, #28
.LCFI94:
	@ sp needed
	ldr	pc, [sp], #4
.L84:
	.align	2
.L83:
	.word	m_cb
	.word	irq_handlers.7506
.LFE220:
	.size	nrfx_uart_init, .-nrfx_uart_init
	.section	.text.nrfx_uart_uninit,"ax",%progbits
	.align	1
	.global	nrfx_uart_uninit
	.syntax unified
	.thumb
	.thumb_func
	.fpu softvfp
	.type	nrfx_uart_uninit, %function
nrfx_uart_uninit:
.LFB221:
	.loc 7 223 1
	@ args = 0, pretend = 0, frame = 16
	@ frame_needed = 0, uses_anonymous_args = 0
	push	{lr}
.LCFI95:
	sub	sp, sp, #20
.LCFI96:
	str	r0, [sp, #4]
	.loc 7 224 51
	ldr	r3, [sp, #4]
	ldrb	r3, [r3, #4]	@ zero_extendqisi2
	mov	r2, r3
	.loc 7 224 28
	movs	r3, #44
	mul	r3, r3, r2
	ldr	r2, .L87
	add	r3, r3, r2
	str	r3, [sp, #12]
	.loc 7 226 5
	ldr	r3, [sp, #4]
	ldr	r3, [r3]
	mov	r0, r3
	bl	nrf_uart_disable
	.loc 7 228 13
	ldr	r3, [sp, #12]
	ldr	r3, [r3, #4]
	.loc 7 228 8
	cmp	r3, #0
	beq	.L86
	.loc 7 230 9
	ldr	r0, [sp, #4]
	bl	interrupts_disable
.L86:
	.loc 7 233 5
	ldr	r0, [sp, #4]
	bl	pins_to_default
	.loc 7 236 32
	ldr	r3, [sp, #4]
	ldr	r3, [r3]
	.loc 7 236 5
	mov	r0, r3
	bl	nrfx_prs_release
	.loc 7 239 19
	ldr	r3, [sp, #12]
	movs	r2, #0
	strb	r2, [r3, #42]
	.loc 7 240 19
	ldr	r3, [sp, #12]
	movs	r2, #0
	str	r2, [r3, #4]
	.loc 7 242 1
	nop
	add	sp, sp, #20
.LCFI97:
	@ sp needed
	ldr	pc, [sp], #4
.L88:
	.align	2
.L87:
	.word	m_cb
.LFE221:
	.size	nrfx_uart_uninit, .-nrfx_uart_uninit
	.section	.text.tx_byte,"ax",%progbits
	.align	1
	.syntax unified
	.thumb
	.thumb_func
	.fpu softvfp
	.type	tx_byte, %function
tx_byte:
.LFB222:
	.loc 7 245 1
	@ args = 0, pretend = 0, frame = 16
	@ frame_needed = 0, uses_anonymous_args = 0
	push	{lr}
.LCFI98:
	sub	sp, sp, #20
.LCFI99:
	str	r0, [sp, #4]
	str	r1, [sp]
	.loc 7 246 5
	mov	r1, #284
	ldr	r0, [sp, #4]
	bl	nrf_uart_event_clear
	.loc 7 247 23
	ldr	r3, [sp]
	ldr	r2, [r3, #8]
	.loc 7 247 41
	ldr	r3, [sp]
	ldr	r3, [r3, #32]
	.loc 7 247 36
	add	r3, r3, r2
	.loc 7 247 13
	ldrb	r3, [r3]
	strb	r3, [sp, #15]
	.loc 7 248 9
	ldr	r3, [sp]
	ldr	r3, [r3, #32]
	.loc 7 248 21
	adds	r2, r3, #1
	ldr	r3, [sp]
	str	r2, [r3, #32]
	.loc 7 249 5
	ldrb	r3, [sp, #15]	@ zero_extendqisi2
	mov	r1, r3
	ldr	r0, [sp, #4]
	bl	nrf_uart_txd_set
	.loc 7 250 1
	nop
	add	sp, sp, #20
.LCFI100:
	@ sp needed
	ldr	pc, [sp], #4
.LFE222:
	.size	tx_byte, .-tx_byte
	.section	.text.tx_blocking,"ax",%progbits
	.align	1
	.syntax unified
	.thumb
	.thumb_func
	.fpu softvfp
	.type	tx_blocking, %function
tx_blocking:
.LFB223:
	.loc 7 253 1
	@ args = 0, pretend = 0, frame = 8
	@ frame_needed = 0, uses_anonymous_args = 0
	push	{lr}
.LCFI101:
	sub	sp, sp, #12
.LCFI102:
	str	r0, [sp, #4]
	str	r1, [sp]
	.loc 7 254 11
	b	.L91
.L94:
	.loc 7 260 21
	ldr	r3, [sp]
	ldrb	r3, [r3, #40]
	uxtb	r3, r3
	.loc 7 260 16
	cmp	r3, #0
	beq	.L92
	.loc 7 262 24
	movs	r3, #0
	b	.L93
.L92:
	.loc 7 258 17
	mov	r1, #284
	ldr	r0, [sp, #4]
	bl	nrf_uart_event_check
	mov	r3, r0
	.loc 7 258 16
	eor	r3, r3, #1
	uxtb	r3, r3
	.loc 7 258 15
	cmp	r3, #0
	bne	.L94
	.loc 7 266 9
	ldr	r1, [sp]
	ldr	r0, [sp, #4]
	bl	tx_byte
.L91:
	.loc 7 254 16
	ldr	r3, [sp]
	ldr	r2, [r3, #32]
	.loc 7 254 35
	ldr	r3, [sp]
	ldr	r3, [r3, #20]
	.loc 7 254 11
	cmp	r2, r3
	bcc	.L92
	.loc 7 269 12
	movs	r3, #1
.L93:
	.loc 7 270 1
	mov	r0, r3
	add	sp, sp, #12
.LCFI103:
	@ sp needed
	ldr	pc, [sp], #4
.LFE223:
	.size	tx_blocking, .-tx_blocking
	.section	.text.nrfx_uart_tx,"ax",%progbits
	.align	1
	.global	nrfx_uart_tx
	.syntax unified
	.thumb
	.thumb_func
	.fpu softvfp
	.type	nrfx_uart_tx, %function
nrfx_uart_tx:
.LFB224:
	.loc 7 275 1
	@ args = 0, pretend = 0, frame = 24
	@ frame_needed = 0, uses_anonymous_args = 0
	push	{lr}
.LCFI104:
	sub	sp, sp, #28
.LCFI105:
	str	r0, [sp, #12]
	str	r1, [sp, #8]
	str	r2, [sp, #4]
	.loc 7 276 51
	ldr	r3, [sp, #12]
	ldrb	r3, [r3, #4]	@ zero_extendqisi2
	mov	r2, r3
	.loc 7 276 28
	movs	r3, #44
	mul	r3, r3, r2
	ldr	r2, .L105
	add	r3, r3, r2
	str	r3, [sp, #16]
	.loc 7 283 9
	ldr	r0, [sp, #12]
	bl	nrfx_uart_tx_in_progress
	mov	r3, r0
	.loc 7 283 8
	cmp	r3, #0
	beq	.L97
	.loc 7 285 18
	movs	r3, #17
	str	r3, [sp, #20]
	.loc 7 289 16
	ldr	r3, [sp, #20]
	b	.L98
.L97:
	.loc 7 291 28
	ldr	r3, [sp, #16]
	ldr	r2, [sp, #4]
	str	r2, [r3, #20]
	.loc 7 292 28
	ldr	r3, [sp, #16]
	ldr	r2, [sp, #8]
	str	r2, [r3, #8]
	.loc 7 293 28
	ldr	r3, [sp, #16]
	movs	r2, #0
	str	r2, [r3, #32]
	.loc 7 294 28
	ldr	r3, [sp, #16]
	movs	r2, #0
	strb	r2, [r3, #40]
	.loc 7 301 14
	movs	r3, #0
	str	r3, [sp, #20]
	.loc 7 303 5
	ldr	r3, [sp, #12]
	ldr	r3, [r3]
	mov	r1, #284
	mov	r0, r3
	bl	nrf_uart_event_clear
	.loc 7 304 5
	ldr	r3, [sp, #12]
	ldr	r3, [r3]
	movs	r1, #8
	mov	r0, r3
	bl	nrf_uart_task_trigger
	.loc 7 306 5
	ldr	r3, [sp, #12]
	ldr	r3, [r3]
	ldr	r1, [sp, #16]
	mov	r0, r3
	bl	tx_byte
	.loc 7 308 13
	ldr	r3, [sp, #16]
	ldr	r3, [r3, #4]
	.loc 7 308 8
	cmp	r3, #0
	bne	.L103
	.loc 7 310 14
	ldr	r3, [sp, #12]
	ldr	r3, [r3]
	ldr	r1, [sp, #16]
	mov	r0, r3
	bl	tx_blocking
	mov	r3, r0
	.loc 7 310 13
	eor	r3, r3, #1
	uxtb	r3, r3
	.loc 7 310 12
	cmp	r3, #0
	beq	.L104
	.loc 7 313 22
	movs	r3, #15
	str	r3, [sp, #20]
	b	.L101
.L104:
	.loc 7 318 19
	nop
.L102:
	.loc 7 318 21 discriminator 1
	ldr	r3, [sp, #12]
	ldr	r3, [r3]
	mov	r1, #284
	mov	r0, r3
	bl	nrf_uart_event_check
	mov	r3, r0
	.loc 7 318 20 discriminator 1
	eor	r3, r3, #1
	uxtb	r3, r3
	.loc 7 318 19 discriminator 1
	cmp	r3, #0
	bne	.L102
	.loc 7 320 13
	ldr	r3, [sp, #12]
	ldr	r3, [r3]
	movs	r1, #12
	mov	r0, r3
	bl	nrf_uart_task_trigger
.L101:
	.loc 7 322 32
	ldr	r3, [sp, #16]
	movs	r2, #0
	str	r2, [r3, #20]
.L103:
	.loc 7 326 12
	ldr	r3, [sp, #20]
.L98:
	.loc 7 327 1
	mov	r0, r3
	add	sp, sp, #28
.LCFI106:
	@ sp needed
	ldr	pc, [sp], #4
.L106:
	.align	2
.L105:
	.word	m_cb
.LFE224:
	.size	nrfx_uart_tx, .-nrfx_uart_tx
	.section	.text.nrfx_uart_tx_in_progress,"ax",%progbits
	.align	1
	.global	nrfx_uart_tx_in_progress
	.syntax unified
	.thumb
	.thumb_func
	.fpu softvfp
	.type	nrfx_uart_tx_in_progress, %function
nrfx_uart_tx_in_progress:
.LFB225:
	.loc 7 330 1
	@ args = 0, pretend = 0, frame = 8
	@ frame_needed = 0, uses_anonymous_args = 0
	@ link register save eliminated.
	sub	sp, sp, #8
.LCFI107:
	str	r0, [sp, #4]
	.loc 7 331 28
	ldr	r3, [sp, #4]
	ldrb	r3, [r3, #4]	@ zero_extendqisi2
	mov	r1, r3
	.loc 7 331 43
	ldr	r2, .L109
	movs	r3, #44
	mul	r3, r3, r1
	add	r3, r3, r2
	adds	r3, r3, #20
	ldr	r3, [r3]
	.loc 7 331 61
	cmp	r3, #0
	ite	ne
	movne	r3, #1
	moveq	r3, #0
	uxtb	r3, r3
	.loc 7 332 1
	mov	r0, r3
	add	sp, sp, #8
.LCFI108:
	@ sp needed
	bx	lr
.L110:
	.align	2
.L109:
	.word	m_cb
.LFE225:
	.size	nrfx_uart_tx_in_progress, .-nrfx_uart_tx_in_progress
	.section	.text.rx_enable,"ax",%progbits
	.align	1
	.syntax unified
	.thumb
	.thumb_func
	.fpu softvfp
	.type	rx_enable, %function
rx_enable:
.LFB226:
	.loc 7 335 1
	@ args = 0, pretend = 0, frame = 8
	@ frame_needed = 0, uses_anonymous_args = 0
	push	{lr}
.LCFI109:
	sub	sp, sp, #12
.LCFI110:
	str	r0, [sp, #4]
	.loc 7 336 5
	ldr	r3, [sp, #4]
	ldr	r3, [r3]
	mov	r1, #292
	mov	r0, r3
	bl	nrf_uart_event_clear
	.loc 7 337 5
	ldr	r3, [sp, #4]
	ldr	r3, [r3]
	mov	r1, #264
	mov	r0, r3
	bl	nrf_uart_event_clear
	.loc 7 338 5
	ldr	r3, [sp, #4]
	ldr	r3, [r3]
	movs	r1, #0
	mov	r0, r3
	bl	nrf_uart_task_trigger
	.loc 7 339 1
	nop
	add	sp, sp, #12
.LCFI111:
	@ sp needed
	ldr	pc, [sp], #4
.LFE226:
	.size	rx_enable, .-rx_enable
	.section	.text.rx_byte,"ax",%progbits
	.align	1
	.syntax unified
	.thumb
	.thumb_func
	.fpu softvfp
	.type	rx_byte, %function
rx_byte:
.LFB227:
	.loc 7 342 1
	@ args = 0, pretend = 0, frame = 8
	@ frame_needed = 0, uses_anonymous_args = 0
	push	{r4, lr}
.LCFI112:
	sub	sp, sp, #8
.LCFI113:
	str	r0, [sp, #4]
	str	r1, [sp]
	.loc 7 343 14
	ldr	r3, [sp]
	ldr	r3, [r3, #24]
	.loc 7 343 8
	cmp	r3, #0
	bne	.L113
	.loc 7 345 9
	mov	r1, #264
	ldr	r0, [sp, #4]
	bl	nrf_uart_event_clear
	.loc 7 347 16
	ldr	r0, [sp, #4]
	bl	nrf_uart_rxd_get
	.loc 7 348 9
	b	.L112
.L113:
	.loc 7 350 5
	mov	r1, #264
	ldr	r0, [sp, #4]
	bl	nrf_uart_event_clear
	.loc 7 351 9
	ldr	r3, [sp]
	ldr	r2, [r3, #12]
	.loc 7 351 27
	ldr	r3, [sp]
	ldr	r3, [r3, #36]
	.loc 7 351 22
	adds	r4, r2, r3
	.loc 7 351 43
	ldr	r0, [sp, #4]
	bl	nrf_uart_rxd_get
	mov	r3, r0
	.loc 7 351 41
	strb	r3, [r4]
	.loc 7 352 9
	ldr	r3, [sp]
	ldr	r3, [r3, #36]
	.loc 7 352 21
	adds	r2, r3, #1
	ldr	r3, [sp]
	str	r2, [r3, #36]
.L112:
	.loc 7 353 1
	add	sp, sp, #8
.LCFI114:
	@ sp needed
	pop	{r4, pc}
.LFE227:
	.size	rx_byte, .-rx_byte
	.section	.text.nrfx_uart_rx,"ax",%progbits
	.align	1
	.global	nrfx_uart_rx
	.syntax unified
	.thumb
	.thumb_func
	.fpu softvfp
	.type	nrfx_uart_rx, %function
nrfx_uart_rx:
.LFB228:
	.loc 7 358 1
	@ args = 0, pretend = 0, frame = 32
	@ frame_needed = 0, uses_anonymous_args = 0
	push	{lr}
.LCFI115:
	sub	sp, sp, #36
.LCFI116:
	str	r0, [sp, #12]
	str	r1, [sp, #8]
	str	r2, [sp, #4]
	.loc 7 359 51
	ldr	r3, [sp, #12]
	ldrb	r3, [r3, #4]	@ zero_extendqisi2
	mov	r2, r3
	.loc 7 359 28
	movs	r3, #44
	mul	r3, r3, r2
	ldr	r2, .L134
	add	r3, r3, r2
	str	r3, [sp, #20]
	.loc 7 367 10
	movs	r3, #0
	strb	r3, [sp, #19]
	.loc 7 369 13
	ldr	r3, [sp, #20]
	ldr	r3, [r3, #4]
	.loc 7 369 8
	cmp	r3, #0
	beq	.L116
	.loc 7 371 9
	ldr	r3, [sp, #12]
	ldr	r3, [r3]
	mov	r1, #516
	mov	r0, r3
	bl	nrf_uart_int_disable
.L116:
	.loc 7 374 13
	ldr	r3, [sp, #20]
	ldr	r3, [r3, #24]
	.loc 7 374 8
	cmp	r3, #0
	beq	.L117
	.loc 7 376 17
	ldr	r3, [sp, #20]
	ldr	r3, [r3, #28]
	.loc 7 376 12
	cmp	r3, #0
	beq	.L118
	.loc 7 378 21
	ldr	r3, [sp, #20]
	ldr	r3, [r3, #4]
	.loc 7 378 16
	cmp	r3, #0
	beq	.L119
	.loc 7 380 17
	ldr	r3, [sp, #12]
	ldr	r3, [r3]
	mov	r1, #516
	mov	r0, r3
	bl	nrf_uart_int_enable
.L119:
	.loc 7 383 22
	movs	r3, #17
	str	r3, [sp, #28]
	.loc 7 387 20
	ldr	r3, [sp, #28]
	b	.L120
.L118:
	.loc 7 389 23
	movs	r3, #1
	strb	r3, [sp, #19]
.L117:
	.loc 7 392 9
	ldrb	r3, [sp, #19]
	eor	r3, r3, #1
	uxtb	r3, r3
	.loc 7 392 8
	cmp	r3, #0
	beq	.L121
	.loc 7 394 32
	ldr	r3, [sp, #20]
	ldr	r2, [sp, #4]
	str	r2, [r3, #24]
	.loc 7 395 32
	ldr	r3, [sp, #20]
	ldr	r2, [sp, #8]
	str	r2, [r3, #12]
	.loc 7 396 32
	ldr	r3, [sp, #20]
	movs	r2, #0
	str	r2, [r3, #36]
	.loc 7 397 42
	ldr	r3, [sp, #20]
	movs	r2, #0
	str	r2, [r3, #28]
	b	.L133
.L121:
	.loc 7 401 37
	ldr	r3, [sp, #20]
	ldr	r2, [sp, #8]
	str	r2, [r3, #16]
	.loc 7 402 42
	ldr	r3, [sp, #20]
	ldr	r2, [sp, #4]
	str	r2, [r3, #28]
.L133:
	.loc 7 407 15
	ldr	r3, [sp, #20]
	ldrb	r3, [r3, #41]	@ zero_extendqisi2
	.loc 7 407 10
	eor	r3, r3, #1
	uxtb	r3, r3
	.loc 7 407 8
	cmp	r3, #0
	beq	.L123
	.loc 7 407 33 discriminator 1
	ldrb	r3, [sp, #19]
	eor	r3, r3, #1
	uxtb	r3, r3
	.loc 7 407 29 discriminator 1
	cmp	r3, #0
	beq	.L123
	.loc 7 409 9
	ldr	r0, [sp, #12]
	bl	rx_enable
.L123:
	.loc 7 412 13
	ldr	r3, [sp, #20]
	ldr	r3, [r3, #4]
	.loc 7 412 8
	cmp	r3, #0
	bne	.L124
.LBB2:
	.loc 7 414 9
	ldr	r3, [sp, #12]
	ldr	r3, [r3]
	mov	r1, #324
	mov	r0, r3
	bl	nrf_uart_event_clear
.L126:
	.loc 7 423 25 discriminator 3
	ldr	r3, [sp, #12]
	ldr	r3, [r3]
	mov	r1, #292
	mov	r0, r3
	bl	nrf_uart_event_check
	mov	r3, r0
	strb	r3, [sp, #27]
	.loc 7 424 25 discriminator 3
	ldr	r3, [sp, #12]
	ldr	r3, [r3]
	mov	r1, #264
	mov	r0, r3
	bl	nrf_uart_event_check
	mov	r3, r0
	strb	r3, [sp, #26]
	.loc 7 425 25 discriminator 3
	ldr	r3, [sp, #12]
	ldr	r3, [r3]
	mov	r1, #324
	mov	r0, r3
	bl	nrf_uart_event_check
	mov	r3, r0
	strb	r3, [sp, #25]
	.loc 7 426 23 discriminator 3
	ldrb	r3, [sp, #26]
	eor	r3, r3, #1
	uxtb	r3, r3
	.loc 7 426 13 discriminator 3
	cmp	r3, #0
	beq	.L125
	.loc 7 426 35 discriminator 1
	ldrb	r3, [sp, #25]
	eor	r3, r3, #1
	uxtb	r3, r3
	.loc 7 426 31 discriminator 1
	cmp	r3, #0
	beq	.L125
	.loc 7 426 46 discriminator 2
	ldrb	r3, [sp, #27]
	eor	r3, r3, #1
	uxtb	r3, r3
	.loc 7 426 42 discriminator 2
	cmp	r3, #0
	bne	.L126
.L125:
	.loc 7 428 16
	ldrb	r3, [sp, #27]	@ zero_extendqisi2
	cmp	r3, #0
	bne	.L127
	.loc 7 428 23 discriminator 1
	ldrb	r3, [sp, #25]	@ zero_extendqisi2
	cmp	r3, #0
	bne	.L127
	.loc 7 432 13
	ldr	r3, [sp, #12]
	ldr	r3, [r3]
	ldr	r1, [sp, #20]
	mov	r0, r3
	bl	rx_byte
	.loc 7 433 22
	ldr	r3, [sp, #20]
	ldr	r2, [r3, #24]
	.loc 7 433 47
	ldr	r3, [sp, #20]
	ldr	r3, [r3, #36]
	.loc 7 433 9
	cmp	r2, r3
	bhi	.L126
.L127:
	.loc 7 435 32
	ldr	r3, [sp, #20]
	movs	r2, #0
	str	r2, [r3, #24]
	.loc 7 436 12
	ldrb	r3, [sp, #27]	@ zero_extendqisi2
	cmp	r3, #0
	beq	.L128
	.loc 7 438 22
	movs	r3, #3
	str	r3, [sp, #28]
	.loc 7 442 20
	ldr	r3, [sp, #28]
	b	.L120
.L128:
	.loc 7 445 12
	ldrb	r3, [sp, #25]	@ zero_extendqisi2
	cmp	r3, #0
	beq	.L129
	.loc 7 447 22
	movs	r3, #15
	str	r3, [sp, #28]
	.loc 7 451 20
	ldr	r3, [sp, #28]
	b	.L120
.L129:
	.loc 7 454 17
	ldr	r3, [sp, #20]
	ldrb	r3, [r3, #41]	@ zero_extendqisi2
	.loc 7 454 12
	cmp	r3, #0
	beq	.L130
	.loc 7 456 13
	ldr	r3, [sp, #12]
	ldr	r3, [r3]
	movs	r1, #0
	mov	r0, r3
	bl	nrf_uart_task_trigger
	b	.L132
.L130:
	.loc 7 461 13
	ldr	r3, [sp, #12]
	ldr	r3, [r3]
	movs	r1, #4
	mov	r0, r3
	bl	nrf_uart_task_trigger
	b	.L132
.L124:
.LBE2:
	.loc 7 466 9
	ldr	r3, [sp, #12]
	ldr	r3, [r3]
	mov	r1, #516
	mov	r0, r3
	bl	nrf_uart_int_enable
.L132:
	.loc 7 469 14
	movs	r3, #0
	str	r3, [sp, #28]
	.loc 7 471 12
	ldr	r3, [sp, #28]
.L120:
	.loc 7 472 1
	mov	r0, r3
	add	sp, sp, #36
.LCFI117:
	@ sp needed
	ldr	pc, [sp], #4
.L135:
	.align	2
.L134:
	.word	m_cb
.LFE228:
	.size	nrfx_uart_rx, .-nrfx_uart_rx
	.section	.text.nrfx_uart_rx_ready,"ax",%progbits
	.align	1
	.global	nrfx_uart_rx_ready
	.syntax unified
	.thumb
	.thumb_func
	.fpu softvfp
	.type	nrfx_uart_rx_ready, %function
nrfx_uart_rx_ready:
.LFB229:
	.loc 7 475 1
	@ args = 0, pretend = 0, frame = 8
	@ frame_needed = 0, uses_anonymous_args = 0
	push	{lr}
.LCFI118:
	sub	sp, sp, #12
.LCFI119:
	str	r0, [sp, #4]
	.loc 7 476 12
	ldr	r3, [sp, #4]
	ldr	r3, [r3]
	mov	r1, #264
	mov	r0, r3
	bl	nrf_uart_event_check
	mov	r3, r0
	.loc 7 477 1
	mov	r0, r3
	add	sp, sp, #12
.LCFI120:
	@ sp needed
	ldr	pc, [sp], #4
.LFE229:
	.size	nrfx_uart_rx_ready, .-nrfx_uart_rx_ready
	.section	.text.nrfx_uart_rx_enable,"ax",%progbits
	.align	1
	.global	nrfx_uart_rx_enable
	.syntax unified
	.thumb
	.thumb_func
	.fpu softvfp
	.type	nrfx_uart_rx_enable, %function
nrfx_uart_rx_enable:
.LFB230:
	.loc 7 480 1
	@ args = 0, pretend = 0, frame = 8
	@ frame_needed = 0, uses_anonymous_args = 0
	push	{lr}
.LCFI121:
	sub	sp, sp, #12
.LCFI122:
	str	r0, [sp, #4]
	.loc 7 481 25
	ldr	r3, [sp, #4]
	ldrb	r3, [r3, #4]	@ zero_extendqisi2
	mov	r1, r3
	.loc 7 481 40
	ldr	r2, .L141
	movs	r3, #44
	mul	r3, r3, r1
	add	r3, r3, r2
	adds	r3, r3, #41
	ldrb	r3, [r3]	@ zero_extendqisi2
	.loc 7 481 9
	eor	r3, r3, #1
	uxtb	r3, r3
	.loc 7 481 8
	cmp	r3, #0
	beq	.L140
	.loc 7 483 9
	ldr	r0, [sp, #4]
	bl	rx_enable
	.loc 7 484 24
	ldr	r3, [sp, #4]
	ldrb	r3, [r3, #4]	@ zero_extendqisi2
	mov	r1, r3
	.loc 7 484 51
	ldr	r2, .L141
	movs	r3, #44
	mul	r3, r3, r1
	add	r3, r3, r2
	adds	r3, r3, #41
	movs	r2, #1
	strb	r2, [r3]
.L140:
	.loc 7 486 1
	nop
	add	sp, sp, #12
.LCFI123:
	@ sp needed
	ldr	pc, [sp], #4
.L142:
	.align	2
.L141:
	.word	m_cb
.LFE230:
	.size	nrfx_uart_rx_enable, .-nrfx_uart_rx_enable
	.section	.text.nrfx_uart_rx_disable,"ax",%progbits
	.align	1
	.global	nrfx_uart_rx_disable
	.syntax unified
	.thumb
	.thumb_func
	.fpu softvfp
	.type	nrfx_uart_rx_disable, %function
nrfx_uart_rx_disable:
.LFB231:
	.loc 7 489 1
	@ args = 0, pretend = 0, frame = 8
	@ frame_needed = 0, uses_anonymous_args = 0
	push	{lr}
.LCFI124:
	sub	sp, sp, #12
.LCFI125:
	str	r0, [sp, #4]
	.loc 7 490 5
	ldr	r3, [sp, #4]
	ldr	r3, [r3]
	movs	r1, #4
	mov	r0, r3
	bl	nrf_uart_task_trigger
	.loc 7 491 20
	ldr	r3, [sp, #4]
	ldrb	r3, [r3, #4]	@ zero_extendqisi2
	mov	r1, r3
	.loc 7 491 47
	ldr	r2, .L144
	movs	r3, #44
	mul	r3, r3, r1
	add	r3, r3, r2
	adds	r3, r3, #41
	movs	r2, #0
	strb	r2, [r3]
	.loc 7 492 1
	nop
	add	sp, sp, #12
.LCFI126:
	@ sp needed
	ldr	pc, [sp], #4
.L145:
	.align	2
.L144:
	.word	m_cb
.LFE231:
	.size	nrfx_uart_rx_disable, .-nrfx_uart_rx_disable
	.section	.text.nrfx_uart_errorsrc_get,"ax",%progbits
	.align	1
	.global	nrfx_uart_errorsrc_get
	.syntax unified
	.thumb
	.thumb_func
	.fpu softvfp
	.type	nrfx_uart_errorsrc_get, %function
nrfx_uart_errorsrc_get:
.LFB232:
	.loc 7 495 1
	@ args = 0, pretend = 0, frame = 8
	@ frame_needed = 0, uses_anonymous_args = 0
	push	{lr}
.LCFI127:
	sub	sp, sp, #12
.LCFI128:
	str	r0, [sp, #4]
	.loc 7 496 5
	ldr	r3, [sp, #4]
	ldr	r3, [r3]
	mov	r1, #292
	mov	r0, r3
	bl	nrf_uart_event_clear
	.loc 7 497 12
	ldr	r3, [sp, #4]
	ldr	r3, [r3]
	mov	r0, r3
	bl	nrf_uart_errorsrc_get_and_clear
	mov	r3, r0
	.loc 7 498 1
	mov	r0, r3
	add	sp, sp, #12
.LCFI129:
	@ sp needed
	ldr	pc, [sp], #4
.LFE232:
	.size	nrfx_uart_errorsrc_get, .-nrfx_uart_errorsrc_get
	.section	.text.rx_done_event,"ax",%progbits
	.align	1
	.syntax unified
	.thumb
	.thumb_func
	.fpu softvfp
	.type	rx_done_event, %function
rx_done_event:
.LFB233:
	.loc 7 503 1
	@ args = 0, pretend = 0, frame = 32
	@ frame_needed = 0, uses_anonymous_args = 0
	push	{lr}
.LCFI130:
	sub	sp, sp, #36
.LCFI131:
	str	r0, [sp, #12]
	str	r1, [sp, #8]
	str	r2, [sp, #4]
	.loc 7 506 28
	movs	r3, #1
	strb	r3, [sp, #16]
	.loc 7 507 28
	ldr	r3, [sp, #8]
	str	r3, [sp, #24]
	.loc 7 508 28
	ldr	r3, [sp, #4]
	str	r3, [sp, #20]
	.loc 7 510 9
	ldr	r3, [sp, #12]
	ldr	r3, [r3, #4]
	.loc 7 510 5
	ldr	r2, [sp, #12]
	ldr	r1, [r2]
	add	r2, sp, #16
	mov	r0, r2
	blx	r3
.LVL0:
	.loc 7 511 1
	nop
	add	sp, sp, #36
.LCFI132:
	@ sp needed
	ldr	pc, [sp], #4
.LFE233:
	.size	rx_done_event, .-rx_done_event
	.section	.text.tx_done_event,"ax",%progbits
	.align	1
	.syntax unified
	.thumb
	.thumb_func
	.fpu softvfp
	.type	tx_done_event, %function
tx_done_event:
.LFB234:
	.loc 7 515 1
	@ args = 0, pretend = 0, frame = 24
	@ frame_needed = 0, uses_anonymous_args = 0
	push	{lr}
.LCFI133:
	sub	sp, sp, #28
.LCFI134:
	str	r0, [sp, #4]
	str	r1, [sp]
	.loc 7 518 28
	movs	r3, #0
	strb	r3, [sp, #8]
	.loc 7 519 28
	ldr	r3, [sp]
	str	r3, [sp, #16]
	.loc 7 520 45
	ldr	r3, [sp, #4]
	ldr	r3, [r3, #8]
	.loc 7 520 28
	str	r3, [sp, #12]
	.loc 7 522 28
	ldr	r3, [sp, #4]
	movs	r2, #0
	str	r2, [r3, #20]
	.loc 7 524 9
	ldr	r3, [sp, #4]
	ldr	r3, [r3, #4]
	.loc 7 524 5
	ldr	r2, [sp, #4]
	ldr	r1, [r2]
	add	r2, sp, #8
	mov	r0, r2
	blx	r3
.LVL1:
	.loc 7 525 1
	nop
	add	sp, sp, #28
.LCFI135:
	@ sp needed
	ldr	pc, [sp], #4
.LFE234:
	.size	tx_done_event, .-tx_done_event
	.section	.text.nrfx_uart_tx_abort,"ax",%progbits
	.align	1
	.global	nrfx_uart_tx_abort
	.syntax unified
	.thumb
	.thumb_func
	.fpu softvfp
	.type	nrfx_uart_tx_abort, %function
nrfx_uart_tx_abort:
.LFB235:
	.loc 7 528 1
	@ args = 0, pretend = 0, frame = 16
	@ frame_needed = 0, uses_anonymous_args = 0
	push	{lr}
.LCFI136:
	sub	sp, sp, #20
.LCFI137:
	str	r0, [sp, #4]
	.loc 7 529 51
	ldr	r3, [sp, #4]
	ldrb	r3, [r3, #4]	@ zero_extendqisi2
	mov	r2, r3
	.loc 7 529 28
	movs	r3, #44
	mul	r3, r3, r2
	ldr	r2, .L153
	add	r3, r3, r2
	str	r3, [sp, #12]
	.loc 7 531 20
	ldr	r3, [sp, #12]
	movs	r2, #1
	strb	r2, [r3, #40]
	.loc 7 532 5
	ldr	r3, [sp, #4]
	ldr	r3, [r3]
	movs	r1, #12
	mov	r0, r3
	bl	nrf_uart_task_trigger
	.loc 7 533 13
	ldr	r3, [sp, #12]
	ldr	r3, [r3, #4]
	.loc 7 533 8
	cmp	r3, #0
	beq	.L152
	.loc 7 535 9
	ldr	r3, [sp, #12]
	ldr	r3, [r3, #32]
	mov	r1, r3
	ldr	r0, [sp, #12]
	bl	tx_done_event
.L152:
	.loc 7 539 1
	nop
	add	sp, sp, #20
.LCFI138:
	@ sp needed
	ldr	pc, [sp], #4
.L154:
	.align	2
.L153:
	.word	m_cb
.LFE235:
	.size	nrfx_uart_tx_abort, .-nrfx_uart_tx_abort
	.section	.text.nrfx_uart_rx_abort,"ax",%progbits
	.align	1
	.global	nrfx_uart_rx_abort
	.syntax unified
	.thumb
	.thumb_func
	.fpu softvfp
	.type	nrfx_uart_rx_abort, %function
nrfx_uart_rx_abort:
.LFB236:
	.loc 7 542 1
	@ args = 0, pretend = 0, frame = 8
	@ frame_needed = 0, uses_anonymous_args = 0
	push	{lr}
.LCFI139:
	sub	sp, sp, #12
.LCFI140:
	str	r0, [sp, #4]
	.loc 7 543 5
	ldr	r3, [sp, #4]
	ldr	r3, [r3]
	mov	r1, #516
	mov	r0, r3
	bl	nrf_uart_int_disable
	.loc 7 545 5
	ldr	r3, [sp, #4]
	ldr	r3, [r3]
	movs	r1, #4
	mov	r0, r3
	bl	nrf_uart_task_trigger
	.loc 7 548 1
	nop
	add	sp, sp, #12
.LCFI141:
	@ sp needed
	ldr	pc, [sp], #4
.LFE236:
	.size	nrfx_uart_rx_abort, .-nrfx_uart_rx_abort
	.section	.text.uart_irq_handler,"ax",%progbits
	.align	1
	.syntax unified
	.thumb
	.thumb_func
	.fpu softvfp
	.type	uart_irq_handler, %function
uart_irq_handler:
.LFB237:
	.loc 7 552 1
	@ args = 0, pretend = 0, frame = 32
	@ frame_needed = 0, uses_anonymous_args = 0
	push	{lr}
.LCFI142:
	sub	sp, sp, #36
.LCFI143:
	str	r0, [sp, #4]
	str	r1, [sp]
	.loc 7 553 9
	mov	r1, #512
	ldr	r0, [sp, #4]
	bl	nrf_uart_int_enable_check
	mov	r3, r0
	.loc 7 553 8
	cmp	r3, #0
	beq	.L157
	.loc 7 554 9 discriminator 1
	mov	r1, #292
	ldr	r0, [sp, #4]
	bl	nrf_uart_event_check
	mov	r3, r0
	.loc 7 553 68 discriminator 1
	cmp	r3, #0
	beq	.L157
.LBB3:
	.loc 7 557 9
	mov	r1, #292
	ldr	r0, [sp, #4]
	bl	nrf_uart_event_clear
	.loc 7 559 9
	mov	r1, #516
	ldr	r0, [sp, #4]
	bl	nrf_uart_int_disable
	.loc 7 561 18
	ldr	r3, [sp]
	ldrb	r3, [r3, #41]	@ zero_extendqisi2
	.loc 7 561 13
	eor	r3, r3, #1
	uxtb	r3, r3
	.loc 7 561 12
	cmp	r3, #0
	beq	.L158
	.loc 7 563 13
	movs	r1, #4
	ldr	r0, [sp, #4]
	bl	nrf_uart_task_trigger
.L158:
	.loc 7 565 38
	movs	r3, #2
	strb	r3, [sp, #8]
	.loc 7 566 40
	ldr	r0, [sp, #4]
	bl	nrf_uart_errorsrc_get_and_clear
	mov	r3, r0
	.loc 7 566 38
	str	r3, [sp, #20]
	.loc 7 567 44
	ldr	r3, [sp]
	ldr	r3, [r3, #24]
	.loc 7 567 38
	str	r3, [sp, #16]
	.loc 7 568 44
	ldr	r3, [sp]
	ldr	r3, [r3, #12]
	.loc 7 568 38
	str	r3, [sp, #12]
	.loc 7 571 32
	ldr	r3, [sp]
	movs	r2, #0
	str	r2, [r3, #24]
	.loc 7 572 42
	ldr	r3, [sp]
	movs	r2, #0
	str	r2, [r3, #28]
	.loc 7 574 13
	ldr	r3, [sp]
	ldr	r3, [r3, #4]
	.loc 7 574 9
	ldr	r2, [sp]
	ldr	r1, [r2]
	add	r2, sp, #8
	mov	r0, r2
	blx	r3
.LVL2:
.LBE3:
	.loc 7 555 5
	b	.L159
.L157:
	.loc 7 576 14
	movs	r1, #4
	ldr	r0, [sp, #4]
	bl	nrf_uart_int_enable_check
	mov	r3, r0
	.loc 7 576 13
	cmp	r3, #0
	beq	.L159
	.loc 7 577 14 discriminator 1
	mov	r1, #264
	ldr	r0, [sp, #4]
	bl	nrf_uart_event_check
	mov	r3, r0
	.loc 7 576 74 discriminator 1
	cmp	r3, #0
	beq	.L159
	.loc 7 579 9
	ldr	r1, [sp]
	ldr	r0, [sp, #4]
	bl	rx_byte
	.loc 7 580 17
	ldr	r3, [sp]
	ldr	r2, [r3, #24]
	.loc 7 580 43
	ldr	r3, [sp]
	ldr	r3, [r3, #36]
	.loc 7 580 12
	cmp	r2, r3
	bne	.L159
	.loc 7 582 21
	ldr	r3, [sp]
	ldr	r3, [r3, #28]
	.loc 7 582 16
	cmp	r3, #0
	beq	.L160
.LBB4:
	.loc 7 584 27
	ldr	r3, [sp]
	ldr	r3, [r3, #12]
	str	r3, [sp, #28]
	.loc 7 585 27
	ldr	r3, [sp]
	ldr	r3, [r3, #36]
	str	r3, [sp, #24]
	.loc 7 588 46
	ldr	r3, [sp]
	ldr	r2, [r3, #28]
	.loc 7 588 40
	ldr	r3, [sp]
	str	r2, [r3, #24]
	.loc 7 589 41
	ldr	r3, [sp]
	ldr	r2, [r3, #16]
	.loc 7 589 35
	ldr	r3, [sp]
	str	r2, [r3, #12]
	.loc 7 590 50
	ldr	r3, [sp]
	movs	r2, #0
	str	r2, [r3, #28]
	.loc 7 591 34
	ldr	r3, [sp]
	movs	r2, #0
	str	r2, [r3, #36]
	.loc 7 592 17
	ldr	r2, [sp, #28]
	ldr	r1, [sp, #24]
	ldr	r0, [sp]
	bl	rx_done_event
.LBE4:
	b	.L159
.L160:
	.loc 7 596 26
	ldr	r3, [sp]
	ldrb	r3, [r3, #41]	@ zero_extendqisi2
	.loc 7 596 21
	eor	r3, r3, #1
	uxtb	r3, r3
	.loc 7 596 20
	cmp	r3, #0
	beq	.L161
	.loc 7 598 21
	movs	r1, #4
	ldr	r0, [sp, #4]
	bl	nrf_uart_task_trigger
.L161:
	.loc 7 600 17
	mov	r1, #516
	ldr	r0, [sp, #4]
	bl	nrf_uart_int_disable
	.loc 7 602 40
	ldr	r3, [sp]
	movs	r2, #0
	str	r2, [r3, #24]
	.loc 7 603 17
	ldr	r3, [sp]
	ldr	r1, [r3, #36]
	ldr	r3, [sp]
	ldr	r3, [r3, #12]
	mov	r2, r3
	ldr	r0, [sp]
	bl	rx_done_event
.L159:
	.loc 7 608 9
	mov	r1, #284
	ldr	r0, [sp, #4]
	bl	nrf_uart_event_check
	mov	r3, r0
	.loc 7 608 8
	cmp	r3, #0
	beq	.L162
	.loc 7 610 17
	ldr	r3, [sp]
	ldr	r2, [r3, #32]
	.loc 7 610 36
	ldr	r3, [sp]
	ldr	r3, [r3, #20]
	.loc 7 610 12
	cmp	r2, r3
	bcs	.L163
	.loc 7 611 18 discriminator 1
	ldr	r3, [sp]
	ldrb	r3, [r3, #40]
	uxtb	r3, r3
	.loc 7 611 13 discriminator 1
	eor	r3, r3, #1
	uxtb	r3, r3
	.loc 7 610 55 discriminator 1
	cmp	r3, #0
	beq	.L163
	.loc 7 613 13
	ldr	r1, [sp]
	ldr	r0, [sp, #4]
	bl	tx_byte
	b	.L162
.L163:
	.loc 7 617 13
	mov	r1, #284
	ldr	r0, [sp, #4]
	bl	nrf_uart_event_clear
	.loc 7 618 21
	ldr	r3, [sp]
	ldr	r3, [r3, #20]
	.loc 7 618 16
	cmp	r3, #0
	beq	.L162
	.loc 7 620 17
	ldr	r3, [sp]
	ldr	r3, [r3, #20]
	mov	r1, r3
	ldr	r0, [sp]
	bl	tx_done_event
.L162:
	.loc 7 625 9
	mov	r1, #324
	ldr	r0, [sp, #4]
	bl	nrf_uart_event_check
	mov	r3, r0
	.loc 7 625 8
	cmp	r3, #0
	beq	.L166
	.loc 7 627 9
	mov	r1, #324
	ldr	r0, [sp, #4]
	bl	nrf_uart_event_clear
	.loc 7 630 17
	ldr	r3, [sp]
	ldrb	r3, [r3, #41]	@ zero_extendqisi2
	.loc 7 630 12
	cmp	r3, #0
	beq	.L165
	.loc 7 632 13
	movs	r1, #0
	ldr	r0, [sp, #4]
	bl	nrf_uart_task_trigger
.L165:
	.loc 7 634 17
	ldr	r3, [sp]
	ldr	r3, [r3, #24]
	.loc 7 634 12
	cmp	r3, #0
	beq	.L166
	.loc 7 636 36
	ldr	r3, [sp]
	movs	r2, #0
	str	r2, [r3, #24]
	.loc 7 637 13
	ldr	r3, [sp]
	ldr	r1, [r3, #36]
	ldr	r3, [sp]
	ldr	r3, [r3, #12]
	mov	r2, r3
	ldr	r0, [sp]
	bl	rx_done_event
.L166:
	.loc 7 640 1
	nop
	add	sp, sp, #36
.LCFI144:
	@ sp needed
	ldr	pc, [sp], #4
.LFE237:
	.size	uart_irq_handler, .-uart_irq_handler
	.section	.text.nrfx_uart_0_irq_handler,"ax",%progbits
	.align	1
	.global	nrfx_uart_0_irq_handler
	.syntax unified
	.thumb
	.thumb_func
	.fpu softvfp
	.type	nrfx_uart_0_irq_handler, %function
nrfx_uart_0_irq_handler:
.LFB238:
	.loc 7 644 1
	@ args = 0, pretend = 0, frame = 0
	@ frame_needed = 0, uses_anonymous_args = 0
	push	{r3, lr}
.LCFI145:
	.loc 7 645 5
	ldr	r1, .L168
	ldr	r0, .L168+4
	bl	uart_irq_handler
	.loc 7 646 1
	nop
	pop	{r3, pc}
.L169:
	.align	2
.L168:
	.word	m_cb
	.word	1073750016
.LFE238:
	.size	nrfx_uart_0_irq_handler, .-nrfx_uart_0_irq_handler
	.section	.rodata.irq_handlers.7506,"a"
	.align	2
	.type	irq_handlers.7506, %object
	.size	irq_handlers.7506, 4
irq_handlers.7506:
	.word	nrfx_uart_0_irq_handler
	.section	.debug_frame,"",%progbits
.Lframe0:
	.4byte	.LECIE0-.LSCIE0
.LSCIE0:
	.4byte	0xffffffff
	.byte	0x3
	.ascii	"\000"
	.uleb128 0x1
	.sleb128 -4
	.uleb128 0xe
	.byte	0xc
	.uleb128 0xd
	.uleb128 0
	.align	2
.LECIE0:
.LSFDE0:
	.4byte	.LEFDE0-.LASFDE0
.LASFDE0:
	.4byte	.Lframe0
	.4byte	.LFB108
	.4byte	.LFE108-.LFB108
	.byte	0x4
	.4byte	.LCFI0-.LFB108
	.byte	0xe
	.uleb128 0x8
	.byte	0x4
	.4byte	.LCFI1-.LCFI0
	.byte	0xe
	.uleb128 0
	.align	2
.LEFDE0:
.LSFDE2:
	.4byte	.LEFDE2-.LASFDE2
.LASFDE2:
	.4byte	.Lframe0
	.4byte	.LFB109
	.4byte	.LFE109-.LFB109
	.byte	0x4
	.4byte	.LCFI2-.LFB109
	.byte	0xe
	.uleb128 0x8
	.byte	0x4
	.4byte	.LCFI3-.LCFI2
	.byte	0xe
	.uleb128 0
	.align	2
.LEFDE2:
.LSFDE4:
	.4byte	.LEFDE4-.LASFDE4
.LASFDE4:
	.4byte	.Lframe0
	.4byte	.LFB114
	.4byte	.LFE114-.LFB114
	.byte	0x4
	.4byte	.LCFI4-.LFB114
	.byte	0xe
	.uleb128 0x8
	.byte	0x4
	.4byte	.LCFI5-.LCFI4
	.byte	0xe
	.uleb128 0
	.align	2
.LEFDE4:
.LSFDE6:
	.4byte	.LEFDE6-.LASFDE6
.LASFDE6:
	.4byte	.Lframe0
	.4byte	.LFB126
	.4byte	.LFE126-.LFB126
	.byte	0x4
	.4byte	.LCFI6-.LFB126
	.byte	0xe
	.uleb128 0x8
	.byte	0x4
	.4byte	.LCFI7-.LCFI6
	.byte	0xe
	.uleb128 0
	.align	2
.LEFDE6:
.LSFDE8:
	.4byte	.LEFDE8-.LASFDE8
.LASFDE8:
	.4byte	.Lframe0
	.4byte	.LFB129
	.4byte	.LFE129-.LFB129
	.align	2
.LEFDE8:
.LSFDE10:
	.4byte	.LEFDE10-.LASFDE10
.LASFDE10:
	.4byte	.Lframe0
	.4byte	.LFB148
	.4byte	.LFE148-.LFB148
	.byte	0x4
	.4byte	.LCFI8-.LFB148
	.byte	0xe
	.uleb128 0x4
	.byte	0x8e
	.uleb128 0x1
	.byte	0x4
	.4byte	.LCFI9-.LCFI8
	.byte	0xe
	.uleb128 0x10
	.byte	0x4
	.4byte	.LCFI10-.LCFI9
	.byte	0xe
	.uleb128 0x4
	.align	2
.LEFDE10:
.LSFDE12:
	.4byte	.LEFDE12-.LASFDE12
.LASFDE12:
	.4byte	.Lframe0
	.4byte	.LFB149
	.4byte	.LFE149-.LFB149
	.byte	0x4
	.4byte	.LCFI11-.LFB149
	.byte	0xe
	.uleb128 0x4
	.byte	0x8e
	.uleb128 0x1
	.byte	0x4
	.4byte	.LCFI12-.LCFI11
	.byte	0xe
	.uleb128 0x10
	.byte	0x4
	.4byte	.LCFI13-.LCFI12
	.byte	0xe
	.uleb128 0x4
	.align	2
.LEFDE12:
.LSFDE14:
	.4byte	.LEFDE14-.LASFDE14
.LASFDE14:
	.4byte	.Lframe0
	.4byte	.LFB151
	.4byte	.LFE151-.LFB151
	.byte	0x4
	.4byte	.LCFI14-.LFB151
	.byte	0xe
	.uleb128 0x4
	.byte	0x8e
	.uleb128 0x1
	.byte	0x4
	.4byte	.LCFI15-.LCFI14
	.byte	0xe
	.uleb128 0x10
	.byte	0x4
	.4byte	.LCFI16-.LCFI15
	.byte	0xe
	.uleb128 0x4
	.align	2
.LEFDE14:
.LSFDE16:
	.4byte	.LEFDE16-.LASFDE16
.LASFDE16:
	.4byte	.Lframe0
	.4byte	.LFB156
	.4byte	.LFE156-.LFB156
	.byte	0x4
	.4byte	.LCFI17-.LFB156
	.byte	0xe
	.uleb128 0x10
	.byte	0x4
	.4byte	.LCFI18-.LCFI17
	.byte	0xe
	.uleb128 0
	.align	2
.LEFDE16:
.LSFDE18:
	.4byte	.LEFDE18-.LASFDE18
.LASFDE18:
	.4byte	.Lframe0
	.4byte	.LFB157
	.4byte	.LFE157-.LFB157
	.byte	0x4
	.4byte	.LCFI19-.LFB157
	.byte	0xe
	.uleb128 0x8
	.byte	0x4
	.4byte	.LCFI20-.LCFI19
	.byte	0xe
	.uleb128 0
	.align	2
.LEFDE18:
.LSFDE20:
	.4byte	.LEFDE20-.LASFDE20
.LASFDE20:
	.4byte	.Lframe0
	.4byte	.LFB159
	.4byte	.LFE159-.LFB159
	.byte	0x4
	.4byte	.LCFI21-.LFB159
	.byte	0xe
	.uleb128 0x8
	.byte	0x4
	.4byte	.LCFI22-.LCFI21
	.byte	0xe
	.uleb128 0
	.align	2
.LEFDE20:
.LSFDE22:
	.4byte	.LEFDE22-.LASFDE22
.LASFDE22:
	.4byte	.Lframe0
	.4byte	.LFB160
	.4byte	.LFE160-.LFB160
	.byte	0x4
	.4byte	.LCFI23-.LFB160
	.byte	0xe
	.uleb128 0x8
	.byte	0x4
	.4byte	.LCFI24-.LCFI23
	.byte	0xe
	.uleb128 0
	.align	2
.LEFDE22:
.LSFDE24:
	.4byte	.LEFDE24-.LASFDE24
.LASFDE24:
	.4byte	.Lframe0
	.4byte	.LFB161
	.4byte	.LFE161-.LFB161
	.byte	0x4
	.4byte	.LCFI25-.LFB161
	.byte	0xe
	.uleb128 0x8
	.byte	0x4
	.4byte	.LCFI26-.LCFI25
	.byte	0xe
	.uleb128 0
	.align	2
.LEFDE24:
.LSFDE26:
	.4byte	.LEFDE26-.LASFDE26
.LASFDE26:
	.4byte	.Lframe0
	.4byte	.LFB162
	.4byte	.LFE162-.LFB162
	.byte	0x4
	.4byte	.LCFI27-.LFB162
	.byte	0xe
	.uleb128 0x10
	.byte	0x4
	.4byte	.LCFI28-.LCFI27
	.byte	0xe
	.uleb128 0
	.align	2
.LEFDE26:
.LSFDE28:
	.4byte	.LEFDE28-.LASFDE28
.LASFDE28:
	.4byte	.Lframe0
	.4byte	.LFB163
	.4byte	.LFE163-.LFB163
	.byte	0x4
	.4byte	.LCFI29-.LFB163
	.byte	0xe
	.uleb128 0x8
	.byte	0x4
	.4byte	.LCFI30-.LCFI29
	.byte	0xe
	.uleb128 0
	.align	2
.LEFDE28:
.LSFDE30:
	.4byte	.LEFDE30-.LASFDE30
.LASFDE30:
	.4byte	.Lframe0
	.4byte	.LFB164
	.4byte	.LFE164-.LFB164
	.byte	0x4
	.4byte	.LCFI31-.LFB164
	.byte	0xe
	.uleb128 0x8
	.byte	0x4
	.4byte	.LCFI32-.LCFI31
	.byte	0xe
	.uleb128 0
	.align	2
.LEFDE30:
.LSFDE32:
	.4byte	.LEFDE32-.LASFDE32
.LASFDE32:
	.4byte	.Lframe0
	.4byte	.LFB165
	.4byte	.LFE165-.LFB165
	.byte	0x4
	.4byte	.LCFI33-.LFB165
	.byte	0xe
	.uleb128 0x10
	.byte	0x4
	.4byte	.LCFI34-.LCFI33
	.byte	0xe
	.uleb128 0
	.align	2
.LEFDE32:
.LSFDE34:
	.4byte	.LEFDE34-.LASFDE34
.LASFDE34:
	.4byte	.Lframe0
	.4byte	.LFB166
	.4byte	.LFE166-.LFB166
	.byte	0x4
	.4byte	.LCFI35-.LFB166
	.byte	0xe
	.uleb128 0x4
	.byte	0x8e
	.uleb128 0x1
	.byte	0x4
	.4byte	.LCFI36-.LCFI35
	.byte	0xe
	.uleb128 0x10
	.byte	0x4
	.4byte	.LCFI37-.LCFI36
	.byte	0xe
	.uleb128 0x4
	.align	2
.LEFDE34:
.LSFDE36:
	.4byte	.LEFDE36-.LASFDE36
.LASFDE36:
	.4byte	.Lframe0
	.4byte	.LFB167
	.4byte	.LFE167-.LFB167
	.byte	0x4
	.4byte	.LCFI38-.LFB167
	.byte	0xe
	.uleb128 0x8
	.byte	0x4
	.4byte	.LCFI39-.LCFI38
	.byte	0xe
	.uleb128 0
	.align	2
.LEFDE36:
.LSFDE38:
	.4byte	.LEFDE38-.LASFDE38
.LASFDE38:
	.4byte	.Lframe0
	.4byte	.LFB168
	.4byte	.LFE168-.LFB168
	.byte	0x4
	.4byte	.LCFI40-.LFB168
	.byte	0xe
	.uleb128 0x8
	.byte	0x4
	.4byte	.LCFI41-.LCFI40
	.byte	0xe
	.uleb128 0
	.align	2
.LEFDE38:
.LSFDE40:
	.4byte	.LEFDE40-.LASFDE40
.LASFDE40:
	.4byte	.Lframe0
	.4byte	.LFB169
	.4byte	.LFE169-.LFB169
	.byte	0x4
	.4byte	.LCFI42-.LFB169
	.byte	0xe
	.uleb128 0x8
	.byte	0x4
	.4byte	.LCFI43-.LCFI42
	.byte	0xe
	.uleb128 0
	.align	2
.LEFDE40:
.LSFDE42:
	.4byte	.LEFDE42-.LASFDE42
.LASFDE42:
	.4byte	.Lframe0
	.4byte	.LFB170
	.4byte	.LFE170-.LFB170
	.byte	0x4
	.4byte	.LCFI44-.LFB170
	.byte	0xe
	.uleb128 0x8
	.byte	0x4
	.4byte	.LCFI45-.LCFI44
	.byte	0xe
	.uleb128 0
	.align	2
.LEFDE42:
.LSFDE44:
	.4byte	.LEFDE44-.LASFDE44
.LASFDE44:
	.4byte	.Lframe0
	.4byte	.LFB171
	.4byte	.LFE171-.LFB171
	.byte	0x4
	.4byte	.LCFI46-.LFB171
	.byte	0xe
	.uleb128 0x10
	.byte	0x4
	.4byte	.LCFI47-.LCFI46
	.byte	0xe
	.uleb128 0
	.align	2
.LEFDE44:
.LSFDE46:
	.4byte	.LEFDE46-.LASFDE46
.LASFDE46:
	.4byte	.Lframe0
	.4byte	.LFB172
	.4byte	.LFE172-.LFB172
	.byte	0x4
	.4byte	.LCFI48-.LFB172
	.byte	0xe
	.uleb128 0x4
	.byte	0x8e
	.uleb128 0x1
	.byte	0x4
	.4byte	.LCFI49-.LCFI48
	.byte	0xe
	.uleb128 0x10
	.byte	0x4
	.4byte	.LCFI50-.LCFI49
	.byte	0xe
	.uleb128 0x4
	.align	2
.LEFDE46:
.LSFDE48:
	.4byte	.LEFDE48-.LASFDE48
.LASFDE48:
	.4byte	.Lframe0
	.4byte	.LFB173
	.4byte	.LFE173-.LFB173
	.byte	0x4
	.4byte	.LCFI51-.LFB173
	.byte	0xe
	.uleb128 0x8
	.byte	0x4
	.4byte	.LCFI52-.LCFI51
	.byte	0xe
	.uleb128 0
	.align	2
.LEFDE48:
.LSFDE50:
	.4byte	.LEFDE50-.LASFDE50
.LASFDE50:
	.4byte	.Lframe0
	.4byte	.LFB174
	.4byte	.LFE174-.LFB174
	.byte	0x4
	.4byte	.LCFI53-.LFB174
	.byte	0xe
	.uleb128 0x8
	.byte	0x4
	.4byte	.LCFI54-.LCFI53
	.byte	0xe
	.uleb128 0
	.align	2
.LEFDE50:
.LSFDE52:
	.4byte	.LEFDE52-.LASFDE52
.LASFDE52:
	.4byte	.Lframe0
	.4byte	.LFB175
	.4byte	.LFE175-.LFB175
	.byte	0x4
	.4byte	.LCFI55-.LFB175
	.byte	0xe
	.uleb128 0x8
	.byte	0x4
	.4byte	.LCFI56-.LCFI55
	.byte	0xe
	.uleb128 0
	.align	2
.LEFDE52:
.LSFDE54:
	.4byte	.LEFDE54-.LASFDE54
.LASFDE54:
	.4byte	.Lframe0
	.4byte	.LFB177
	.4byte	.LFE177-.LFB177
	.byte	0x4
	.4byte	.LCFI57-.LFB177
	.byte	0xe
	.uleb128 0x8
	.byte	0x4
	.4byte	.LCFI58-.LCFI57
	.byte	0xe
	.uleb128 0
	.align	2
.LEFDE54:
.LSFDE56:
	.4byte	.LEFDE56-.LASFDE56
.LASFDE56:
	.4byte	.Lframe0
	.4byte	.LFB178
	.4byte	.LFE178-.LFB178
	.byte	0x4
	.4byte	.LCFI59-.LFB178
	.byte	0xe
	.uleb128 0x8
	.byte	0x4
	.4byte	.LCFI60-.LCFI59
	.byte	0xe
	.uleb128 0
	.align	2
.LEFDE56:
.LSFDE58:
	.4byte	.LEFDE58-.LASFDE58
.LASFDE58:
	.4byte	.Lframe0
	.4byte	.LFB181
	.4byte	.LFE181-.LFB181
	.byte	0x4
	.4byte	.LCFI61-.LFB181
	.byte	0xe
	.uleb128 0x8
	.byte	0x4
	.4byte	.LCFI62-.LCFI61
	.byte	0xe
	.uleb128 0
	.align	2
.LEFDE58:
.LSFDE60:
	.4byte	.LEFDE60-.LASFDE60
.LASFDE60:
	.4byte	.Lframe0
	.4byte	.LFB184
	.4byte	.LFE184-.LFB184
	.byte	0x4
	.4byte	.LCFI63-.LFB184
	.byte	0xe
	.uleb128 0x4
	.byte	0x8e
	.uleb128 0x1
	.byte	0x4
	.4byte	.LCFI64-.LCFI63
	.byte	0xe
	.uleb128 0x18
	.byte	0x4
	.4byte	.LCFI65-.LCFI64
	.byte	0xe
	.uleb128 0x4
	.align	2
.LEFDE60:
.LSFDE62:
	.4byte	.LEFDE62-.LASFDE62
.LASFDE62:
	.4byte	.Lframe0
	.4byte	.LFB185
	.4byte	.LFE185-.LFB185
	.byte	0x4
	.4byte	.LCFI66-.LFB185
	.byte	0xe
	.uleb128 0x4
	.byte	0x8e
	.uleb128 0x1
	.byte	0x4
	.4byte	.LCFI67-.LCFI66
	.byte	0xe
	.uleb128 0x18
	.byte	0x4
	.4byte	.LCFI68-.LCFI67
	.byte	0xe
	.uleb128 0x4
	.align	2
.LEFDE62:
.LSFDE64:
	.4byte	.LEFDE64-.LASFDE64
.LASFDE64:
	.4byte	.Lframe0
	.4byte	.LFB186
	.4byte	.LFE186-.LFB186
	.byte	0x4
	.4byte	.LCFI69-.LFB186
	.byte	0xe
	.uleb128 0x4
	.byte	0x8e
	.uleb128 0x1
	.byte	0x4
	.4byte	.LCFI70-.LCFI69
	.byte	0xe
	.uleb128 0x18
	.byte	0x4
	.4byte	.LCFI71-.LCFI70
	.byte	0xe
	.uleb128 0x4
	.align	2
.LEFDE64:
.LSFDE66:
	.4byte	.LEFDE66-.LASFDE66
.LASFDE66:
	.4byte	.Lframe0
	.4byte	.LFB187
	.4byte	.LFE187-.LFB187
	.byte	0x4
	.4byte	.LCFI72-.LFB187
	.byte	0xe
	.uleb128 0x4
	.byte	0x8e
	.uleb128 0x1
	.byte	0x4
	.4byte	.LCFI73-.LCFI72
	.byte	0xe
	.uleb128 0x18
	.byte	0x4
	.4byte	.LCFI74-.LCFI73
	.byte	0xe
	.uleb128 0x4
	.align	2
.LEFDE66:
.LSFDE68:
	.4byte	.LEFDE68-.LASFDE68
.LASFDE68:
	.4byte	.Lframe0
	.4byte	.LFB193
	.4byte	.LFE193-.LFB193
	.byte	0x4
	.4byte	.LCFI75-.LFB193
	.byte	0xe
	.uleb128 0x4
	.byte	0x8e
	.uleb128 0x1
	.byte	0x4
	.4byte	.LCFI76-.LCFI75
	.byte	0xe
	.uleb128 0x18
	.byte	0x4
	.4byte	.LCFI77-.LCFI76
	.byte	0xe
	.uleb128 0x4
	.align	2
.LEFDE68:
.LSFDE70:
	.4byte	.LEFDE70-.LASFDE70
.LASFDE70:
	.4byte	.Lframe0
	.4byte	.LFB210
	.4byte	.LFE210-.LFB210
	.byte	0x4
	.4byte	.LCFI78-.LFB210
	.byte	0xe
	.uleb128 0x8
	.byte	0x4
	.4byte	.LCFI79-.LCFI78
	.byte	0xe
	.uleb128 0
	.align	2
.LEFDE70:
.LSFDE72:
	.4byte	.LEFDE72-.LASFDE72
.LASFDE72:
	.4byte	.Lframe0
	.4byte	.LFB216
	.4byte	.LFE216-.LFB216
	.byte	0x4
	.4byte	.LCFI80-.LFB216
	.byte	0xe
	.uleb128 0x4
	.byte	0x8e
	.uleb128 0x1
	.byte	0x4
	.4byte	.LCFI81-.LCFI80
	.byte	0xe
	.uleb128 0x10
	.byte	0x4
	.4byte	.LCFI82-.LCFI81
	.byte	0xe
	.uleb128 0x4
	.align	2
.LEFDE72:
.LSFDE74:
	.4byte	.LEFDE74-.LASFDE74
.LASFDE74:
	.4byte	.Lframe0
	.4byte	.LFB217
	.4byte	.LFE217-.LFB217
	.byte	0x4
	.4byte	.LCFI83-.LFB217
	.byte	0xe
	.uleb128 0x4
	.byte	0x8e
	.uleb128 0x1
	.byte	0x4
	.4byte	.LCFI84-.LCFI83
	.byte	0xe
	.uleb128 0x10
	.byte	0x4
	.4byte	.LCFI85-.LCFI84
	.byte	0xe
	.uleb128 0x4
	.align	2
.LEFDE74:
.LSFDE76:
	.4byte	.LEFDE76-.LASFDE76
.LASFDE76:
	.4byte	.Lframe0
	.4byte	.LFB218
	.4byte	.LFE218-.LFB218
	.byte	0x4
	.4byte	.LCFI86-.LFB218
	.byte	0xe
	.uleb128 0x4
	.byte	0x8e
	.uleb128 0x1
	.byte	0x4
	.4byte	.LCFI87-.LCFI86
	.byte	0xe
	.uleb128 0x10
	.byte	0x4
	.4byte	.LCFI88-.LCFI87
	.byte	0xe
	.uleb128 0x4
	.align	2
.LEFDE76:
.LSFDE78:
	.4byte	.LEFDE78-.LASFDE78
.LASFDE78:
	.4byte	.Lframe0
	.4byte	.LFB219
	.4byte	.LFE219-.LFB219
	.byte	0x4
	.4byte	.LCFI89-.LFB219
	.byte	0xe
	.uleb128 0x4
	.byte	0x8e
	.uleb128 0x1
	.byte	0x4
	.4byte	.LCFI90-.LCFI89
	.byte	0xe
	.uleb128 0x20
	.byte	0x4
	.4byte	.LCFI91-.LCFI90
	.byte	0xe
	.uleb128 0x4
	.align	2
.LEFDE78:
.LSFDE80:
	.4byte	.LEFDE80-.LASFDE80
.LASFDE80:
	.4byte	.Lframe0
	.4byte	.LFB220
	.4byte	.LFE220-.LFB220
	.byte	0x4
	.4byte	.LCFI92-.LFB220
	.byte	0xe
	.uleb128 0x4
	.byte	0x8e
	.uleb128 0x1
	.byte	0x4
	.4byte	.LCFI93-.LCFI92
	.byte	0xe
	.uleb128 0x20
	.byte	0x4
	.4byte	.LCFI94-.LCFI93
	.byte	0xe
	.uleb128 0x4
	.align	2
.LEFDE80:
.LSFDE82:
	.4byte	.LEFDE82-.LASFDE82
.LASFDE82:
	.4byte	.Lframe0
	.4byte	.LFB221
	.4byte	.LFE221-.LFB221
	.byte	0x4
	.4byte	.LCFI95-.LFB221
	.byte	0xe
	.uleb128 0x4
	.byte	0x8e
	.uleb128 0x1
	.byte	0x4
	.4byte	.LCFI96-.LCFI95
	.byte	0xe
	.uleb128 0x18
	.byte	0x4
	.4byte	.LCFI97-.LCFI96
	.byte	0xe
	.uleb128 0x4
	.align	2
.LEFDE82:
.LSFDE84:
	.4byte	.LEFDE84-.LASFDE84
.LASFDE84:
	.4byte	.Lframe0
	.4byte	.LFB222
	.4byte	.LFE222-.LFB222
	.byte	0x4
	.4byte	.LCFI98-.LFB222
	.byte	0xe
	.uleb128 0x4
	.byte	0x8e
	.uleb128 0x1
	.byte	0x4
	.4byte	.LCFI99-.LCFI98
	.byte	0xe
	.uleb128 0x18
	.byte	0x4
	.4byte	.LCFI100-.LCFI99
	.byte	0xe
	.uleb128 0x4
	.align	2
.LEFDE84:
.LSFDE86:
	.4byte	.LEFDE86-.LASFDE86
.LASFDE86:
	.4byte	.Lframe0
	.4byte	.LFB223
	.4byte	.LFE223-.LFB223
	.byte	0x4
	.4byte	.LCFI101-.LFB223
	.byte	0xe
	.uleb128 0x4
	.byte	0x8e
	.uleb128 0x1
	.byte	0x4
	.4byte	.LCFI102-.LCFI101
	.byte	0xe
	.uleb128 0x10
	.byte	0x4
	.4byte	.LCFI103-.LCFI102
	.byte	0xe
	.uleb128 0x4
	.align	2
.LEFDE86:
.LSFDE88:
	.4byte	.LEFDE88-.LASFDE88
.LASFDE88:
	.4byte	.Lframe0
	.4byte	.LFB224
	.4byte	.LFE224-.LFB224
	.byte	0x4
	.4byte	.LCFI104-.LFB224
	.byte	0xe
	.uleb128 0x4
	.byte	0x8e
	.uleb128 0x1
	.byte	0x4
	.4byte	.LCFI105-.LCFI104
	.byte	0xe
	.uleb128 0x20
	.byte	0x4
	.4byte	.LCFI106-.LCFI105
	.byte	0xe
	.uleb128 0x4
	.align	2
.LEFDE88:
.LSFDE90:
	.4byte	.LEFDE90-.LASFDE90
.LASFDE90:
	.4byte	.Lframe0
	.4byte	.LFB225
	.4byte	.LFE225-.LFB225
	.byte	0x4
	.4byte	.LCFI107-.LFB225
	.byte	0xe
	.uleb128 0x8
	.byte	0x4
	.4byte	.LCFI108-.LCFI107
	.byte	0xe
	.uleb128 0
	.align	2
.LEFDE90:
.LSFDE92:
	.4byte	.LEFDE92-.LASFDE92
.LASFDE92:
	.4byte	.Lframe0
	.4byte	.LFB226
	.4byte	.LFE226-.LFB226
	.byte	0x4
	.4byte	.LCFI109-.LFB226
	.byte	0xe
	.uleb128 0x4
	.byte	0x8e
	.uleb128 0x1
	.byte	0x4
	.4byte	.LCFI110-.LCFI109
	.byte	0xe
	.uleb128 0x10
	.byte	0x4
	.4byte	.LCFI111-.LCFI110
	.byte	0xe
	.uleb128 0x4
	.align	2
.LEFDE92:
.LSFDE94:
	.4byte	.LEFDE94-.LASFDE94
.LASFDE94:
	.4byte	.Lframe0
	.4byte	.LFB227
	.4byte	.LFE227-.LFB227
	.byte	0x4
	.4byte	.LCFI112-.LFB227
	.byte	0xe
	.uleb128 0x8
	.byte	0x84
	.uleb128 0x2
	.byte	0x8e
	.uleb128 0x1
	.byte	0x4
	.4byte	.LCFI113-.LCFI112
	.byte	0xe
	.uleb128 0x10
	.byte	0x4
	.4byte	.LCFI114-.LCFI113
	.byte	0xe
	.uleb128 0x8
	.align	2
.LEFDE94:
.LSFDE96:
	.4byte	.LEFDE96-.LASFDE96
.LASFDE96:
	.4byte	.Lframe0
	.4byte	.LFB228
	.4byte	.LFE228-.LFB228
	.byte	0x4
	.4byte	.LCFI115-.LFB228
	.byte	0xe
	.uleb128 0x4
	.byte	0x8e
	.uleb128 0x1
	.byte	0x4
	.4byte	.LCFI116-.LCFI115
	.byte	0xe
	.uleb128 0x28
	.byte	0x4
	.4byte	.LCFI117-.LCFI116
	.byte	0xe
	.uleb128 0x4
	.align	2
.LEFDE96:
.LSFDE98:
	.4byte	.LEFDE98-.LASFDE98
.LASFDE98:
	.4byte	.Lframe0
	.4byte	.LFB229
	.4byte	.LFE229-.LFB229
	.byte	0x4
	.4byte	.LCFI118-.LFB229
	.byte	0xe
	.uleb128 0x4
	.byte	0x8e
	.uleb128 0x1
	.byte	0x4
	.4byte	.LCFI119-.LCFI118
	.byte	0xe
	.uleb128 0x10
	.byte	0x4
	.4byte	.LCFI120-.LCFI119
	.byte	0xe
	.uleb128 0x4
	.align	2
.LEFDE98:
.LSFDE100:
	.4byte	.LEFDE100-.LASFDE100
.LASFDE100:
	.4byte	.Lframe0
	.4byte	.LFB230
	.4byte	.LFE230-.LFB230
	.byte	0x4
	.4byte	.LCFI121-.LFB230
	.byte	0xe
	.uleb128 0x4
	.byte	0x8e
	.uleb128 0x1
	.byte	0x4
	.4byte	.LCFI122-.LCFI121
	.byte	0xe
	.uleb128 0x10
	.byte	0x4
	.4byte	.LCFI123-.LCFI122
	.byte	0xe
	.uleb128 0x4
	.align	2
.LEFDE100:
.LSFDE102:
	.4byte	.LEFDE102-.LASFDE102
.LASFDE102:
	.4byte	.Lframe0
	.4byte	.LFB231
	.4byte	.LFE231-.LFB231
	.byte	0x4
	.4byte	.LCFI124-.LFB231
	.byte	0xe
	.uleb128 0x4
	.byte	0x8e
	.uleb128 0x1
	.byte	0x4
	.4byte	.LCFI125-.LCFI124
	.byte	0xe
	.uleb128 0x10
	.byte	0x4
	.4byte	.LCFI126-.LCFI125
	.byte	0xe
	.uleb128 0x4
	.align	2
.LEFDE102:
.LSFDE104:
	.4byte	.LEFDE104-.LASFDE104
.LASFDE104:
	.4byte	.Lframe0
	.4byte	.LFB232
	.4byte	.LFE232-.LFB232
	.byte	0x4
	.4byte	.LCFI127-.LFB232
	.byte	0xe
	.uleb128 0x4
	.byte	0x8e
	.uleb128 0x1
	.byte	0x4
	.4byte	.LCFI128-.LCFI127
	.byte	0xe
	.uleb128 0x10
	.byte	0x4
	.4byte	.LCFI129-.LCFI128
	.byte	0xe
	.uleb128 0x4
	.align	2
.LEFDE104:
.LSFDE106:
	.4byte	.LEFDE106-.LASFDE106
.LASFDE106:
	.4byte	.Lframe0
	.4byte	.LFB233
	.4byte	.LFE233-.LFB233
	.byte	0x4
	.4byte	.LCFI130-.LFB233
	.byte	0xe
	.uleb128 0x4
	.byte	0x8e
	.uleb128 0x1
	.byte	0x4
	.4byte	.LCFI131-.LCFI130
	.byte	0xe
	.uleb128 0x28
	.byte	0x4
	.4byte	.LCFI132-.LCFI131
	.byte	0xe
	.uleb128 0x4
	.align	2
.LEFDE106:
.LSFDE108:
	.4byte	.LEFDE108-.LASFDE108
.LASFDE108:
	.4byte	.Lframe0
	.4byte	.LFB234
	.4byte	.LFE234-.LFB234
	.byte	0x4
	.4byte	.LCFI133-.LFB234
	.byte	0xe
	.uleb128 0x4
	.byte	0x8e
	.uleb128 0x1
	.byte	0x4
	.4byte	.LCFI134-.LCFI133
	.byte	0xe
	.uleb128 0x20
	.byte	0x4
	.4byte	.LCFI135-.LCFI134
	.byte	0xe
	.uleb128 0x4
	.align	2
.LEFDE108:
.LSFDE110:
	.4byte	.LEFDE110-.LASFDE110
.LASFDE110:
	.4byte	.Lframe0
	.4byte	.LFB235
	.4byte	.LFE235-.LFB235
	.byte	0x4
	.4byte	.LCFI136-.LFB235
	.byte	0xe
	.uleb128 0x4
	.byte	0x8e
	.uleb128 0x1
	.byte	0x4
	.4byte	.LCFI137-.LCFI136
	.byte	0xe
	.uleb128 0x18
	.byte	0x4
	.4byte	.LCFI138-.LCFI137
	.byte	0xe
	.uleb128 0x4
	.align	2
.LEFDE110:
.LSFDE112:
	.4byte	.LEFDE112-.LASFDE112
.LASFDE112:
	.4byte	.Lframe0
	.4byte	.LFB236
	.4byte	.LFE236-.LFB236
	.byte	0x4
	.4byte	.LCFI139-.LFB236
	.byte	0xe
	.uleb128 0x4
	.byte	0x8e
	.uleb128 0x1
	.byte	0x4
	.4byte	.LCFI140-.LCFI139
	.byte	0xe
	.uleb128 0x10
	.byte	0x4
	.4byte	.LCFI141-.LCFI140
	.byte	0xe
	.uleb128 0x4
	.align	2
.LEFDE112:
.LSFDE114:
	.4byte	.LEFDE114-.LASFDE114
.LASFDE114:
	.4byte	.Lframe0
	.4byte	.LFB237
	.4byte	.LFE237-.LFB237
	.byte	0x4
	.4byte	.LCFI142-.LFB237
	.byte	0xe
	.uleb128 0x4
	.byte	0x8e
	.uleb128 0x1
	.byte	0x4
	.4byte	.LCFI143-.LCFI142
	.byte	0xe
	.uleb128 0x28
	.byte	0x4
	.4byte	.LCFI144-.LCFI143
	.byte	0xe
	.uleb128 0x4
	.align	2
.LEFDE114:
.LSFDE116:
	.4byte	.LEFDE116-.LASFDE116
.LASFDE116:
	.4byte	.Lframe0
	.4byte	.LFB238
	.4byte	.LFE238-.LFB238
	.byte	0x4
	.4byte	.LCFI145-.LFB238
	.byte	0xe
	.uleb128 0x8
	.byte	0x83
	.uleb128 0x2
	.byte	0x8e
	.uleb128 0x1
	.align	2
.LEFDE116:
	.text
.Letext0:
	.file 8 "C:/gu/arm_segger_embedded_studio_v420a_win_x64_nordic/include/stdint.h"
	.file 9 "C:/gu/arm_segger_embedded_studio_v420a_win_x64_nordic/include/__crossworks.h"
	.file 10 "C:/gu/arm_segger_embedded_studio_v420a_win_x64_nordic/include/stddef.h"
	.file 11 "./../../../../../../../modules/nrfx/mdk/nrf52840.h"
	.file 12 "./../../../../../../../modules/nrfx/mdk/system_nrf52840.h"
	.file 13 "./../../../../../../../components/libraries/util/app_util.h"
	.file 14 "C:/gu/arm_segger_embedded_studio_v420a_win_x64_nordic/include/stdio.h"
	.file 15 "./../../../../../../../components/libraries/util/sdk_errors.h"
	.file 16 "./../../../../../../../modules/nrfx/drivers/include/nrfx_uart.h"
	.file 17 "./../../../../../../../components/libraries/log/nrf_log_types.h"
	.file 18 "./../../../../../../../components/libraries/log/nrf_log_instance.h"
	.file 19 "./../../../../../../../components/libraries/log/src/nrf_log_internal.h"
	.file 20 "./../../../../../../../integration/nrfx/nrfx_log.h"